
vmlinux:     file format elf32-tradbigmips

Disassembly of section .excep_vec3:

80000080 <except_vec3>:
80000080:	401b6800 	mfc0	k1,$13
80000084:	3c1a8001 	lui	k0,0x8001
80000088:	275a66a0 	addiu	k0,k0,26272
8000008c:	337b007c 	andi	k1,k1,0x7c
80000090:	035bd021 	addu	k0,k0,k1
80000094:	8f5a0000 	lw	k0,0(k0)
80000098:	00000000 	nop
8000009c:	03400008 	jr	k0
800000a0:	00000000 	nop
Disassembly of section .text:

80010000 <_start>:
80010000:	40806000 	mtc0	zero,$12
80010004:	00000000 	nop
80010008:	40809000 	mtc0	zero,$18
8001000c:	00000000 	nop
80010010:	40809800 	mtc0	zero,$19
80010014:	00000000 	nop
80010018:	40088000 	mfc0	t0,$16
8001001c:	2401fff8 	li	at,-8
80010020:	01014024 	and	t0,t0,at
80010024:	35080002 	ori	t0,t0,0x2
80010028:	40888000 	mtc0	t0,$16
8001002c:	3c1d8040 	lui	sp,0x8040
80010030:	3c088040 	lui	t0,0x8040
80010034:	3c018001 	lui	at,0x8001
80010038:	0c004014 	jal	80010050 <main>
8001003c:	ac286740 	sw	t0,26432(at)

80010040 <loop>:
80010040:	08004010 	j	80010040 <loop>
80010044:	00000000 	nop
	...

80010050 <main>:
80010050:	27bdffe8 	addiu	sp,sp,-24
80010054:	afbf0010 	sw	ra,16(sp)
80010058:	3c048001 	lui	a0,0x8001
8001005c:	0c00495e 	jal	80012578 <printf>
80010060:	24845918 	addiu	a0,a0,22808
80010064:	0c004024 	jal	80010090 <mips_init>
80010068:	00000000 	nop
8001006c:	3c048001 	lui	a0,0x8001
80010070:	24845934 	addiu	a0,a0,22836
80010074:	24050014 	li	a1,20
80010078:	3c068001 	lui	a2,0x8001
8001007c:	0c00496e 	jal	800125b8 <_panic>
80010080:	24c6593c 	addiu	a2,a2,22844
	...

80010090 <mips_init>:
80010090:	27bdffe8 	addiu	sp,sp,-24
80010094:	afbf0010 	sw	ra,16(sp)
80010098:	3c048001 	lui	a0,0x8001
8001009c:	0c00495e 	jal	80012578 <printf>
800100a0:	24845954 	addiu	a0,a0,22868
800100a4:	0c004dcc 	jal	80013730 <mips_detect_memory>
800100a8:	00000000 	nop
800100ac:	0c004e85 	jal	80013a14 <mips_vm_init>
800100b0:	00000000 	nop
800100b4:	0c004ee4 	jal	80013b90 <page_init>
800100b8:	00000000 	nop
800100bc:	0c0040cd 	jal	80010334 <env_init>
800100c0:	00000000 	nop
800100c4:	3c048006 	lui	a0,0x8006
800100c8:	3c028007 	lui	v0,0x8007
800100cc:	8c450604 	lw	a1,1540(v0)
800100d0:	0c004288 	jal	80010a20 <env_create>
800100d4:	24846320 	addiu	a0,a0,25376
800100d8:	0c004d70 	jal	800135c0 <trap_init>
800100dc:	00000000 	nop
800100e0:	0c0046a8 	jal	80011aa0 <kclock_init>
800100e4:	00000000 	nop
800100e8:	3c048001 	lui	a0,0x8001
800100ec:	24845974 	addiu	a0,a0,22900
800100f0:	24050029 	li	a1,41
800100f4:	3c068001 	lui	a2,0x8001
800100f8:	0c00496e 	jal	800125b8 <_panic>
800100fc:	24c6597c 	addiu	a2,a2,22908

80010100 <bcopy>:
80010100:	00c53021 	addu	a2,a2,a1
80010104:	24a20003 	addiu	v0,a1,3
80010108:	0046102b 	sltu	v0,v0,a2
8001010c:	1040000b 	beqz	v0,8001013c <bcopy+0x3c>
80010110:	00a6102b 	sltu	v0,a1,a2
80010114:	00a01821 	move	v1,a1
80010118:	8c820000 	lw	v0,0(a0)
8001011c:	00000000 	nop
80010120:	aca20000 	sw	v0,0(a1)
80010124:	24a50004 	addiu	a1,a1,4
80010128:	24630007 	addiu	v1,v1,7
8001012c:	0066182b 	sltu	v1,v1,a2
80010130:	1460fff8 	bnez	v1,80010114 <bcopy+0x14>
80010134:	24840004 	addiu	a0,a0,4
80010138:	00a6102b 	sltu	v0,a1,a2
8001013c:	10400007 	beqz	v0,8001015c <bcopy+0x5c>
80010140:	00a01821 	move	v1,a1
80010144:	90820000 	lbu	v0,0(a0)
80010148:	00000000 	nop
8001014c:	a0620000 	sb	v0,0(v1)
80010150:	24630001 	addiu	v1,v1,1
80010154:	1466fffb 	bne	v1,a2,80010144 <bcopy+0x44>
80010158:	24840001 	addiu	a0,a0,1
8001015c:	03e00008 	jr	ra
80010160:	00000000 	nop

80010164 <bzero>:
80010164:	00a42821 	addu	a1,a1,a0
80010168:	24820003 	addiu	v0,a0,3
8001016c:	0045102b 	sltu	v0,v0,a1
80010170:	10400008 	beqz	v0,80010194 <bzero+0x30>
80010174:	0085102b 	sltu	v0,a0,a1
80010178:	00801021 	move	v0,a0
8001017c:	ac800000 	sw	zero,0(a0)
80010180:	24420007 	addiu	v0,v0,7
80010184:	0045102b 	sltu	v0,v0,a1
80010188:	1440fffb 	bnez	v0,80010178 <bzero+0x14>
8001018c:	24840004 	addiu	a0,a0,4
80010190:	0085102b 	sltu	v0,a0,a1
80010194:	10400005 	beqz	v0,800101ac <bzero+0x48>
80010198:	00801021 	move	v0,a0
8001019c:	a0400000 	sb	zero,0(v0)
800101a0:	24420001 	addiu	v0,v0,1
800101a4:	1445fffd 	bne	v0,a1,8001019c <bzero+0x38>
800101a8:	00000000 	nop
800101ac:	03e00008 	jr	ra
800101b0:	00000000 	nop
	...

800101c0 <printcharc>:
800101c0:	308400ff 	andi	a0,a0,0xff
800101c4:	3c029000 	lui	v0,0x9000
800101c8:	a0440000 	sb	a0,0(v0)
800101cc:	03e00008 	jr	ra
800101d0:	00000000 	nop

800101d4 <halt>:
800101d4:	3c029000 	lui	v0,0x9000
800101d8:	34420010 	ori	v0,v0,0x10
800101dc:	a0400000 	sb	zero,0(v0)
800101e0:	03e00008 	jr	ra
800101e4:	00000000 	nop

800101e8 <printstr>:
800101e8:	27bdffe8 	addiu	sp,sp,-24
800101ec:	afbf0014 	sw	ra,20(sp)
800101f0:	afb00010 	sw	s0,16(sp)
800101f4:	00808021 	move	s0,a0
800101f8:	80840000 	lb	a0,0(a0)
800101fc:	00000000 	nop
80010200:	10800007 	beqz	a0,80010220 <printstr+0x38>
80010204:	00000000 	nop
80010208:	0c004070 	jal	800101c0 <printcharc>
8001020c:	26100001 	addiu	s0,s0,1
80010210:	82040000 	lb	a0,0(s0)
80010214:	00000000 	nop
80010218:	1480fffb 	bnez	a0,80010208 <printstr+0x20>
8001021c:	00000000 	nop
80010220:	8fbf0014 	lw	ra,20(sp)
80010224:	8fb00010 	lw	s0,16(sp)
80010228:	03e00008 	jr	ra
8001022c:	27bd0018 	addiu	sp,sp,24

80010230 <mkenvid>:
80010230:	3c028001 	lui	v0,0x8001
80010234:	8c426620 	lw	v0,26144(v0)
80010238:	00000000 	nop
8001023c:	00822023 	subu	a0,a0,v0
80010240:	00042103 	sra	a0,a0,0x4
80010244:	00041900 	sll	v1,a0,0x4
80010248:	00641821 	addu	v1,v1,a0
8001024c:	00031200 	sll	v0,v1,0x8
80010250:	00621821 	addu	v1,v1,v0
80010254:	00031400 	sll	v0,v1,0x10
80010258:	00621821 	addu	v1,v1,v0
8001025c:	00031823 	negu	v1,v1
80010260:	3c048001 	lui	a0,0x8001
80010264:	8c826628 	lw	v0,26152(a0)
80010268:	00000000 	nop
8001026c:	24420001 	addiu	v0,v0,1
80010270:	ac826628 	sw	v0,26152(a0)
80010274:	000212c0 	sll	v0,v0,0xb
80010278:	03e00008 	jr	ra
8001027c:	00621025 	or	v0,v1,v0

80010280 <envid2env>:
80010280:	14800006 	bnez	a0,8001029c <envid2env+0x1c>
80010284:	3c028001 	lui	v0,0x8001
80010288:	8c426624 	lw	v0,26148(v0)
8001028c:	00000000 	nop
80010290:	aca20000 	sw	v0,0(a1)
80010294:	03e00008 	jr	ra
80010298:	00001021 	move	v0,zero
8001029c:	308203ff 	andi	v0,a0,0x3ff
800102a0:	00021900 	sll	v1,v0,0x4
800102a4:	00021200 	sll	v0,v0,0x8
800102a8:	00431023 	subu	v0,v0,v1
800102ac:	3c038001 	lui	v1,0x8001
800102b0:	8c636620 	lw	v1,26144(v1)
800102b4:	00000000 	nop
800102b8:	00433821 	addu	a3,v0,v1
800102bc:	8ce200ac 	lw	v0,172(a3)
800102c0:	00000000 	nop
800102c4:	10400005 	beqz	v0,800102dc <envid2env+0x5c>
800102c8:	00000000 	nop
800102cc:	8ce200a4 	lw	v0,164(a3)
800102d0:	00000000 	nop
800102d4:	10820004 	beq	a0,v0,800102e8 <envid2env+0x68>
800102d8:	00000000 	nop
800102dc:	aca00000 	sw	zero,0(a1)
800102e0:	03e00008 	jr	ra
800102e4:	2402fffe 	li	v0,-2
800102e8:	24020001 	li	v0,1
800102ec:	14c2000e 	bne	a2,v0,80010328 <envid2env+0xa8>
800102f0:	00000000 	nop
800102f4:	3c028001 	lui	v0,0x8001
800102f8:	8c426624 	lw	v0,26148(v0)
800102fc:	00000000 	nop
80010300:	10e20009 	beq	a3,v0,80010328 <envid2env+0xa8>
80010304:	00000000 	nop
80010308:	8ce300a8 	lw	v1,168(a3)
8001030c:	8c4200a4 	lw	v0,164(v0)
80010310:	00000000 	nop
80010314:	10620004 	beq	v1,v0,80010328 <envid2env+0xa8>
80010318:	00000000 	nop
8001031c:	aca00000 	sw	zero,0(a1)
80010320:	03e00008 	jr	ra
80010324:	2402fffe 	li	v0,-2
80010328:	aca70000 	sw	a3,0(a1)
8001032c:	03e00008 	jr	ra
80010330:	00001021 	move	v0,zero

80010334 <env_init>:
80010334:	3c028001 	lui	v0,0x8001
80010338:	ac40662c 	sw	zero,26156(v0)
8001033c:	3c028001 	lui	v0,0x8001
80010340:	ac406720 	sw	zero,26400(v0)
80010344:	24426720 	addiu	v0,v0,26400
80010348:	ac400004 	sw	zero,4(v0)
8001034c:	3c020003 	lui	v0,0x3
80010350:	3444bf10 	ori	a0,v0,0xbf10
80010354:	3c058001 	lui	a1,0x8001
80010358:	3c078001 	lui	a3,0x8001
8001035c:	24e9662c 	addiu	t1,a3,26156
80010360:	2408ff10 	li	t0,-240
80010364:	00803021 	move	a2,a0
80010368:	8ca26620 	lw	v0,26144(a1)
8001036c:	00000000 	nop
80010370:	00441021 	addu	v0,v0,a0
80010374:	ac4000ac 	sw	zero,172(v0)
80010378:	8ce3662c 	lw	v1,26156(a3)
8001037c:	8ca26620 	lw	v0,26144(a1)
80010380:	00000000 	nop
80010384:	00441021 	addu	v0,v0,a0
80010388:	10600007 	beqz	v1,800103a8 <env_init+0x74>
8001038c:	ac43009c 	sw	v1,156(v0)
80010390:	8ce3662c 	lw	v1,26156(a3)
80010394:	8ca26620 	lw	v0,26144(a1)
80010398:	00000000 	nop
8001039c:	00821021 	addu	v0,a0,v0
800103a0:	2442009c 	addiu	v0,v0,156
800103a4:	ac6200a0 	sw	v0,160(v1)
800103a8:	8ca26620 	lw	v0,26144(a1)
800103ac:	00000000 	nop
800103b0:	00c21021 	addu	v0,a2,v0
800103b4:	ace2662c 	sw	v0,26156(a3)
800103b8:	2484ff10 	addiu	a0,a0,-240
800103bc:	1488ffe9 	bne	a0,t0,80010364 <env_init+0x30>
800103c0:	ac4900a0 	sw	t1,160(v0)
800103c4:	00001821 	move	v1,zero
800103c8:	3c028001 	lui	v0,0x8001
800103cc:	24426658 	addiu	v0,v0,26200
800103d0:	24040005 	li	a0,5
800103d4:	ac430000 	sw	v1,0(v0)
800103d8:	ac40fffc 	sw	zero,-4(v0)
800103dc:	24630001 	addiu	v1,v1,1
800103e0:	1464fffc 	bne	v1,a0,800103d4 <env_init+0xa0>
800103e4:	24420010 	addiu	v0,v0,16
800103e8:	03e00008 	jr	ra
800103ec:	00000000 	nop

800103f0 <env_setup_vm>:
800103f0:	27bdffe0 	addiu	sp,sp,-32
800103f4:	afbf001c 	sw	ra,28(sp)
800103f8:	afb00018 	sw	s0,24(sp)
800103fc:	00808021 	move	s0,a0
80010400:	afa00010 	sw	zero,16(sp)
80010404:	0c004f51 	jal	80013d44 <page_alloc>
80010408:	27a40010 	addiu	a0,sp,16
8001040c:	10400006 	beqz	v0,80010428 <env_setup_vm+0x38>
80010410:	3c048001 	lui	a0,0x8001
80010414:	248459a4 	addiu	a0,a0,22948
80010418:	24050092 	li	a1,146
8001041c:	3c068001 	lui	a2,0x8001
80010420:	0c00496e 	jal	800125b8 <_panic>
80010424:	24c659ac 	addiu	a2,a2,22956
80010428:	8fa30010 	lw	v1,16(sp)
8001042c:	00000000 	nop
80010430:	94620008 	lhu	v0,8(v1)
80010434:	00000000 	nop
80010438:	24420001 	addiu	v0,v0,1
8001043c:	a4620008 	sh	v0,8(v1)
80010440:	3c028001 	lui	v0,0x8001
80010444:	8c42673c 	lw	v0,26428(v0)
80010448:	8fa30010 	lw	v1,16(sp)
8001044c:	00000000 	nop
80010450:	00621823 	subu	v1,v1,v0
80010454:	00031883 	sra	v1,v1,0x2
80010458:	00031080 	sll	v0,v1,0x2
8001045c:	00431021 	addu	v0,v0,v1
80010460:	00021900 	sll	v1,v0,0x4
80010464:	00431021 	addu	v0,v0,v1
80010468:	00021a00 	sll	v1,v0,0x8
8001046c:	00431021 	addu	v0,v0,v1
80010470:	00021c00 	sll	v1,v0,0x10
80010474:	00431021 	addu	v0,v0,v1
80010478:	00021023 	negu	v0,v0
8001047c:	00023b00 	sll	a3,v0,0xc
80010480:	00071302 	srl	v0,a3,0xc
80010484:	3c038001 	lui	v1,0x8001
80010488:	8c636728 	lw	v1,26408(v1)
8001048c:	00000000 	nop
80010490:	0043102b 	sltu	v0,v0,v1
80010494:	14400007 	bnez	v0,800104b4 <env_setup_vm+0xc4>
80010498:	240401fd 	li	a0,509
8001049c:	3c048001 	lui	a0,0x8001
800104a0:	248459d0 	addiu	a0,a0,22992
800104a4:	24050030 	li	a1,48
800104a8:	3c068001 	lui	a2,0x8001
800104ac:	0c00496e 	jal	800125b8 <_panic>
800104b0:	24c659e4 	addiu	a2,a2,23012
800104b4:	3c028000 	lui	v0,0x8000
800104b8:	00e23821 	addu	a3,a3,v0
800104bc:	ae0700b0 	sw	a3,176(s0)
800104c0:	3c028001 	lui	v0,0x8001
800104c4:	8c42673c 	lw	v0,26428(v0)
800104c8:	8fa30010 	lw	v1,16(sp)
800104cc:	00000000 	nop
800104d0:	00621823 	subu	v1,v1,v0
800104d4:	00031883 	sra	v1,v1,0x2
800104d8:	00031080 	sll	v0,v1,0x2
800104dc:	00431021 	addu	v0,v0,v1
800104e0:	00021900 	sll	v1,v0,0x4
800104e4:	00431021 	addu	v0,v0,v1
800104e8:	00021a00 	sll	v1,v0,0x8
800104ec:	00431021 	addu	v0,v0,v1
800104f0:	00021c00 	sll	v1,v0,0x10
800104f4:	00431021 	addu	v0,v0,v1
800104f8:	00021023 	negu	v0,v0
800104fc:	00021300 	sll	v0,v0,0xc
80010500:	ae0200b4 	sw	v0,180(s0)
80010504:	00e01021 	move	v0,a3
80010508:	00001821 	move	v1,zero
8001050c:	ac400000 	sw	zero,0(v0)
80010510:	24630001 	addiu	v1,v1,1
80010514:	10640010 	beq	v1,a0,80010558 <env_setup_vm+0x168>
80010518:	24420004 	addiu	v0,v0,4
8001051c:	1000fffc 	b	80010510 <env_setup_vm+0x120>
80010520:	ac400000 	sw	zero,0(v0)
80010524:	3c028001 	lui	v0,0x8001
80010528:	8c42672c 	lw	v0,26412(v0)
8001052c:	00000000 	nop
80010530:	00821021 	addu	v0,a0,v0
80010534:	8c420000 	lw	v0,0(v0)
80010538:	00000000 	nop
8001053c:	ace20000 	sw	v0,0(a3)
80010540:	2463ffff 	addiu	v1,v1,-1
80010544:	24840004 	addiu	a0,a0,4
80010548:	1060000a 	beqz	v1,80010574 <env_setup_vm+0x184>
8001054c:	24e70004 	addiu	a3,a3,4
80010550:	1000fff5 	b	80010528 <env_setup_vm+0x138>
80010554:	3c028001 	lui	v0,0x8001
80010558:	28620400 	slti	v0,v1,1024
8001055c:	10400005 	beqz	v0,80010574 <env_setup_vm+0x184>
80010560:	00031080 	sll	v0,v1,0x2
80010564:	00402021 	move	a0,v0
80010568:	00473821 	addu	a3,v0,a3
8001056c:	1000ffed 	b	80010524 <env_setup_vm+0x134>
80010570:	24030203 	li	v1,515
80010574:	8e0300b0 	lw	v1,176(s0)
80010578:	8e0200b4 	lw	v0,180(s0)
8001057c:	00000000 	nop
80010580:	34420200 	ori	v0,v0,0x200
80010584:	ac6207fc 	sw	v0,2044(v1)
80010588:	00001021 	move	v0,zero
8001058c:	8fbf001c 	lw	ra,28(sp)
80010590:	8fb00018 	lw	s0,24(sp)
80010594:	03e00008 	jr	ra
80010598:	27bd0020 	addiu	sp,sp,32

8001059c <env_alloc>:
8001059c:	27bdffe0 	addiu	sp,sp,-32
800105a0:	afbf001c 	sw	ra,28(sp)
800105a4:	afb20018 	sw	s2,24(sp)
800105a8:	afb10014 	sw	s1,20(sp)
800105ac:	afb00010 	sw	s0,16(sp)
800105b0:	00809021 	move	s2,a0
800105b4:	3c028001 	lui	v0,0x8001
800105b8:	8c50662c 	lw	s0,26156(v0)
800105bc:	00000000 	nop
800105c0:	16000003 	bnez	s0,800105d0 <env_alloc+0x34>
800105c4:	00a08821 	move	s1,a1
800105c8:	1000001d 	b	80010640 <env_alloc+0xa4>
800105cc:	2402fffb 	li	v0,-5
800105d0:	0c0040fc 	jal	800103f0 <env_setup_vm>
800105d4:	02002021 	move	a0,s0
800105d8:	0c00408c 	jal	80010230 <mkenvid>
800105dc:	02002021 	move	a0,s0
800105e0:	ae0200a4 	sw	v0,164(s0)
800105e4:	ae1100a8 	sw	s1,168(s0)
800105e8:	3c027f3f 	lui	v0,0x7f3f
800105ec:	3442e000 	ori	v0,v0,0xe000
800105f0:	ae020074 	sw	v0,116(s0)
800105f4:	24020001 	li	v0,1
800105f8:	ae0200ac 	sw	v0,172(s0)
800105fc:	ae0000e8 	sw	zero,232(s0)
80010600:	3c021000 	lui	v0,0x1000
80010604:	34421004 	ori	v0,v0,0x1004
80010608:	ae020080 	sw	v0,128(s0)
8001060c:	8e03009c 	lw	v1,156(s0)
80010610:	00000000 	nop
80010614:	10600004 	beqz	v1,80010628 <env_alloc+0x8c>
80010618:	00000000 	nop
8001061c:	8e0200a0 	lw	v0,160(s0)
80010620:	00000000 	nop
80010624:	ac6200a0 	sw	v0,160(v1)
80010628:	8e0300a0 	lw	v1,160(s0)
8001062c:	8e02009c 	lw	v0,156(s0)
80010630:	00000000 	nop
80010634:	ac620000 	sw	v0,0(v1)
80010638:	ae500000 	sw	s0,0(s2)
8001063c:	00001021 	move	v0,zero
80010640:	8fbf001c 	lw	ra,28(sp)
80010644:	8fb20018 	lw	s2,24(sp)
80010648:	8fb10014 	lw	s1,20(sp)
8001064c:	8fb00010 	lw	s0,16(sp)
80010650:	03e00008 	jr	ra
80010654:	27bd0020 	addiu	sp,sp,32

80010658 <load_icode_mapper>:
80010658:	27bdffb0 	addiu	sp,sp,-80
8001065c:	afbf004c 	sw	ra,76(sp)
80010660:	afbe0048 	sw	s8,72(sp)
80010664:	afb70044 	sw	s7,68(sp)
80010668:	afb60040 	sw	s6,64(sp)
8001066c:	afb5003c 	sw	s5,60(sp)
80010670:	afb40038 	sw	s4,56(sp)
80010674:	afb30034 	sw	s3,52(sp)
80010678:	afb20030 	sw	s2,48(sp)
8001067c:	afb1002c 	sw	s1,44(sp)
80010680:	afb00028 	sw	s0,40(sp)
80010684:	00809821 	move	s3,a0
80010688:	00a0f021 	move	s8,a1
8001068c:	afa60058 	sw	a2,88(sp)
80010690:	00e0a821 	move	s5,a3
80010694:	8fb70060 	lw	s7,96(sp)
80010698:	afa00020 	sw	zero,32(sp)
8001069c:	30910fff 	andi	s1,a0,0xfff
800106a0:	2402f000 	li	v0,-4096
800106a4:	14e00004 	bnez	a3,800106b8 <load_icode_mapper+0x60>
800106a8:	00829024 	and	s2,a0,v0
800106ac:	0000b021 	move	s6,zero
800106b0:	10000058 	b	80010814 <load_icode_mapper+0x1bc>
800106b4:	0000a021 	move	s4,zero
800106b8:	0000b021 	move	s6,zero
800106bc:	0000a021 	move	s4,zero
800106c0:	0c004f51 	jal	80013d44 <page_alloc>
800106c4:	27a40020 	addiu	a0,sp,32
800106c8:	14400078 	bnez	v0,800108ac <load_icode_mapper+0x254>
800106cc:	2402ffff 	li	v0,-1
800106d0:	12800002 	beqz	s4,800106dc <load_icode_mapper+0x84>
800106d4:	02202821 	move	a1,s1
800106d8:	00002821 	move	a1,zero
800106dc:	3c028001 	lui	v0,0x8001
800106e0:	8c42673c 	lw	v0,26428(v0)
800106e4:	8fa30020 	lw	v1,32(sp)
800106e8:	00000000 	nop
800106ec:	00621823 	subu	v1,v1,v0
800106f0:	00031883 	sra	v1,v1,0x2
800106f4:	00031080 	sll	v0,v1,0x2
800106f8:	00431021 	addu	v0,v0,v1
800106fc:	00021900 	sll	v1,v0,0x4
80010700:	00431021 	addu	v0,v0,v1
80010704:	00021a00 	sll	v1,v0,0x8
80010708:	00431021 	addu	v0,v0,v1
8001070c:	00021c00 	sll	v1,v0,0x10
80010710:	00431021 	addu	v0,v0,v1
80010714:	00021023 	negu	v0,v0
80010718:	00023b00 	sll	a3,v0,0xc
8001071c:	00071302 	srl	v0,a3,0xc
80010720:	3c038001 	lui	v1,0x8001
80010724:	8c636728 	lw	v1,26408(v1)
80010728:	00000000 	nop
8001072c:	0043102b 	sltu	v0,v0,v1
80010730:	14400007 	bnez	v0,80010750 <load_icode_mapper+0xf8>
80010734:	3c028000 	lui	v0,0x8000
80010738:	3c048001 	lui	a0,0x8001
8001073c:	248459d0 	addiu	a0,a0,22992
80010740:	24050030 	li	a1,48
80010744:	3c068001 	lui	a2,0x8001
80010748:	0c00496e 	jal	800125b8 <_panic>
8001074c:	24c659e4 	addiu	a2,a2,23012
80010750:	00e23821 	addu	a3,a3,v0
80010754:	2ca21000 	sltiu	v0,a1,4096
80010758:	1040000f 	beqz	v0,80010798 <load_icode_mapper+0x140>
8001075c:	02548021 	addu	s0,s2,s4
80010760:	1000004a 	b	8001088c <load_icode_mapper+0x234>
80010764:	02d5102b 	sltu	v0,s6,s5
80010768:	90820000 	lbu	v0,0(a0)
8001076c:	00000000 	nop
80010770:	a0e20000 	sb	v0,0(a3)
80010774:	24a50001 	addiu	a1,a1,1
80010778:	24021000 	li	v0,4096
8001077c:	10a20004 	beq	a1,v0,80010790 <load_icode_mapper+0x138>
80010780:	24630001 	addiu	v1,v1,1
80010784:	24840001 	addiu	a0,a0,1
80010788:	1475fff7 	bne	v1,s5,80010768 <load_icode_mapper+0x110>
8001078c:	24e70001 	addiu	a3,a3,1
80010790:	0060b021 	move	s6,v1
80010794:	02548021 	addu	s0,s2,s4
80010798:	8ee400b0 	lw	a0,176(s7)
8001079c:	8fa50020 	lw	a1,32(sp)
800107a0:	02003021 	move	a2,s0
800107a4:	0c004fe9 	jal	80013fa4 <page_insert>
800107a8:	24070400 	li	a3,1024
800107ac:	3c048001 	lui	a0,0x8001
800107b0:	24845a08 	addiu	a0,a0,23048
800107b4:	0c00495e 	jal	80012578 <printf>
800107b8:	02002821 	move	a1,s0
800107bc:	3c028001 	lui	v0,0x8001
800107c0:	8c43673c 	lw	v1,26428(v0)
800107c4:	8fa20020 	lw	v0,32(sp)
800107c8:	00000000 	nop
800107cc:	00431023 	subu	v0,v0,v1
800107d0:	00021083 	sra	v0,v0,0x2
800107d4:	00022880 	sll	a1,v0,0x2
800107d8:	00a22821 	addu	a1,a1,v0
800107dc:	00051100 	sll	v0,a1,0x4
800107e0:	00a22821 	addu	a1,a1,v0
800107e4:	00051200 	sll	v0,a1,0x8
800107e8:	00a22821 	addu	a1,a1,v0
800107ec:	00051400 	sll	v0,a1,0x10
800107f0:	00a22821 	addu	a1,a1,v0
800107f4:	00052823 	negu	a1,a1
800107f8:	3c048001 	lui	a0,0x8001
800107fc:	24845a20 	addiu	a0,a0,23072
80010800:	0c00495e 	jal	80012578 <printf>
80010804:	00052b00 	sll	a1,a1,0xc
80010808:	02d5102b 	sltu	v0,s6,s5
8001080c:	1440ffac 	bnez	v0,800106c0 <load_icode_mapper+0x68>
80010810:	26941000 	addiu	s4,s4,4096
80010814:	023e8021 	addu	s0,s1,s8
80010818:	0290102b 	sltu	v0,s4,s0
8001081c:	1040000d 	beqz	v0,80010854 <load_icode_mapper+0x1fc>
80010820:	02548821 	addu	s1,s2,s4
80010824:	0c004f51 	jal	80013d44 <page_alloc>
80010828:	27a40020 	addiu	a0,sp,32
8001082c:	14400015 	bnez	v0,80010884 <load_icode_mapper+0x22c>
80010830:	02203021 	move	a2,s1
80010834:	8ee400b0 	lw	a0,176(s7)
80010838:	8fa50020 	lw	a1,32(sp)
8001083c:	0c004fe9 	jal	80013fa4 <page_insert>
80010840:	24070400 	li	a3,1024
80010844:	26941000 	addiu	s4,s4,4096
80010848:	0290102b 	sltu	v0,s4,s0
8001084c:	1440fff5 	bnez	v0,80010824 <load_icode_mapper+0x1cc>
80010850:	26311000 	addiu	s1,s1,4096
80010854:	afb30010 	sw	s3,16(sp)
80010858:	afb20014 	sw	s2,20(sp)
8001085c:	afb40018 	sw	s4,24(sp)
80010860:	afb6001c 	sw	s6,28(sp)
80010864:	3c048001 	lui	a0,0x8001
80010868:	24845a3c 	addiu	a0,a0,23100
8001086c:	8fa50058 	lw	a1,88(sp)
80010870:	02a03021 	move	a2,s5
80010874:	0c00495e 	jal	80012578 <printf>
80010878:	02003821 	move	a3,s0
8001087c:	1000000b 	b	800108ac <load_icode_mapper+0x254>
80010880:	00001021 	move	v0,zero
80010884:	10000009 	b	800108ac <load_icode_mapper+0x254>
80010888:	2402ffff 	li	v0,-1
8001088c:	1040ffc2 	beqz	v0,80010798 <load_icode_mapper+0x140>
80010890:	02548021 	addu	s0,s2,s4
80010894:	8fa20058 	lw	v0,88(sp)
80010898:	00000000 	nop
8001089c:	00562021 	addu	a0,v0,s6
800108a0:	00e53821 	addu	a3,a3,a1
800108a4:	1000ffb0 	b	80010768 <load_icode_mapper+0x110>
800108a8:	02c01821 	move	v1,s6
800108ac:	8fbf004c 	lw	ra,76(sp)
800108b0:	8fbe0048 	lw	s8,72(sp)
800108b4:	8fb70044 	lw	s7,68(sp)
800108b8:	8fb60040 	lw	s6,64(sp)
800108bc:	8fb5003c 	lw	s5,60(sp)
800108c0:	8fb40038 	lw	s4,56(sp)
800108c4:	8fb30034 	lw	s3,52(sp)
800108c8:	8fb20030 	lw	s2,48(sp)
800108cc:	8fb1002c 	lw	s1,44(sp)
800108d0:	8fb00028 	lw	s0,40(sp)
800108d4:	03e00008 	jr	ra
800108d8:	27bd0050 	addiu	sp,sp,80

800108dc <load_icode>:
800108dc:	27bdffd0 	addiu	sp,sp,-48
800108e0:	afbf002c 	sw	ra,44(sp)
800108e4:	afb20028 	sw	s2,40(sp)
800108e8:	afb10024 	sw	s1,36(sp)
800108ec:	afb00020 	sw	s0,32(sp)
800108f0:	00808021 	move	s0,a0
800108f4:	00a08821 	move	s1,a1
800108f8:	00c09021 	move	s2,a2
800108fc:	afa00018 	sw	zero,24(sp)
80010900:	0c004f51 	jal	80013d44 <page_alloc>
80010904:	27a40018 	addiu	a0,sp,24
80010908:	14400014 	bnez	v0,8001095c <load_icode+0x80>
8001090c:	3c067f3f 	lui	a2,0x7f3f
80010910:	8e0400b0 	lw	a0,176(s0)
80010914:	8fa50018 	lw	a1,24(sp)
80010918:	34c6d000 	ori	a2,a2,0xd000
8001091c:	0c004fe9 	jal	80013fa4 <page_insert>
80010920:	24070400 	li	a3,1024
80010924:	3c028001 	lui	v0,0x8001
80010928:	24420658 	addiu	v0,v0,1624
8001092c:	afa20010 	sw	v0,16(sp)
80010930:	02202021 	move	a0,s1
80010934:	02402821 	move	a1,s2
80010938:	27a6001c 	addiu	a2,sp,28
8001093c:	0c0046c6 	jal	80011b18 <load_elf>
80010940:	02003821 	move	a3,s0
80010944:	8fa5001c 	lw	a1,28(sp)
80010948:	00000000 	nop
8001094c:	ae050098 	sw	a1,152(s0)
80010950:	3c048001 	lui	a0,0x8001
80010954:	0c00495e 	jal	80012578 <printf>
80010958:	24845a78 	addiu	a0,a0,23160
8001095c:	8fbf002c 	lw	ra,44(sp)
80010960:	8fb20028 	lw	s2,40(sp)
80010964:	8fb10024 	lw	s1,36(sp)
80010968:	8fb00020 	lw	s0,32(sp)
8001096c:	03e00008 	jr	ra
80010970:	27bd0030 	addiu	sp,sp,48

80010974 <env_create_priority>:
80010974:	27bdffd8 	addiu	sp,sp,-40
80010978:	afbf0024 	sw	ra,36(sp)
8001097c:	afb20020 	sw	s2,32(sp)
80010980:	afb1001c 	sw	s1,28(sp)
80010984:	afb00018 	sw	s0,24(sp)
80010988:	00808821 	move	s1,a0
8001098c:	00a09021 	move	s2,a1
80010990:	00c08021 	move	s0,a2
80010994:	27a40010 	addiu	a0,sp,16
80010998:	0c004167 	jal	8001059c <env_alloc>
8001099c:	00002821 	move	a1,zero
800109a0:	8fa20010 	lw	v0,16(sp)
800109a4:	00000000 	nop
800109a8:	ac5000c8 	sw	s0,200(v0)
800109ac:	8fa40010 	lw	a0,16(sp)
800109b0:	02202821 	move	a1,s1
800109b4:	0c004237 	jal	800108dc <load_icode>
800109b8:	02403021 	move	a2,s2
800109bc:	24030001 	li	v1,1
800109c0:	8fa20010 	lw	v0,16(sp)
800109c4:	00000000 	nop
800109c8:	ac4300ac 	sw	v1,172(v0)
800109cc:	3c048001 	lui	a0,0x8001
800109d0:	8c836720 	lw	v1,26400(a0)
800109d4:	8fa20010 	lw	v0,16(sp)
800109d8:	10600006 	beqz	v1,800109f4 <env_create_priority+0x80>
800109dc:	ac4300b8 	sw	v1,184(v0)
800109e0:	8c836720 	lw	v1,26400(a0)
800109e4:	8fa20010 	lw	v0,16(sp)
800109e8:	00000000 	nop
800109ec:	244200b8 	addiu	v0,v0,184
800109f0:	ac6200bc 	sw	v0,188(v1)
800109f4:	8fa30010 	lw	v1,16(sp)
800109f8:	3c028001 	lui	v0,0x8001
800109fc:	ac436720 	sw	v1,26400(v0)
80010a00:	24426720 	addiu	v0,v0,26400
80010a04:	ac6200bc 	sw	v0,188(v1)
80010a08:	8fbf0024 	lw	ra,36(sp)
80010a0c:	8fb20020 	lw	s2,32(sp)
80010a10:	8fb1001c 	lw	s1,28(sp)
80010a14:	8fb00018 	lw	s0,24(sp)
80010a18:	03e00008 	jr	ra
80010a1c:	27bd0028 	addiu	sp,sp,40

80010a20 <env_create>:
80010a20:	27bdffe8 	addiu	sp,sp,-24
80010a24:	afbf0010 	sw	ra,16(sp)
80010a28:	0c00425d 	jal	80010974 <env_create_priority>
80010a2c:	24060001 	li	a2,1
80010a30:	8fbf0010 	lw	ra,16(sp)
80010a34:	00000000 	nop
80010a38:	03e00008 	jr	ra
80010a3c:	27bd0018 	addiu	sp,sp,24

80010a40 <env_free>:
80010a40:	27bdffc8 	addiu	sp,sp,-56
80010a44:	afbf0034 	sw	ra,52(sp)
80010a48:	afbe0030 	sw	s8,48(sp)
80010a4c:	afb7002c 	sw	s7,44(sp)
80010a50:	afb60028 	sw	s6,40(sp)
80010a54:	afb50024 	sw	s5,36(sp)
80010a58:	afb40020 	sw	s4,32(sp)
80010a5c:	afb3001c 	sw	s3,28(sp)
80010a60:	afb20018 	sw	s2,24(sp)
80010a64:	afb10014 	sw	s1,20(sp)
80010a68:	afb00010 	sw	s0,16(sp)
80010a6c:	3c028001 	lui	v0,0x8001
80010a70:	8c456624 	lw	a1,26148(v0)
80010a74:	00000000 	nop
80010a78:	10a00002 	beqz	a1,80010a84 <env_free+0x44>
80010a7c:	0080a021 	move	s4,a0
80010a80:	8ca500a4 	lw	a1,164(a1)
80010a84:	3c048001 	lui	a0,0x8001
80010a88:	8e8600a4 	lw	a2,164(s4)
80010a8c:	0c00495e 	jal	80012578 <printf>
80010a90:	24845a8c 	addiu	a0,a0,23180
80010a94:	0000b821 	move	s7,zero
80010a98:	0017f080 	sll	s8,s7,0x2
80010a9c:	8e8200b0 	lw	v0,176(s4)
80010aa0:	00000000 	nop
80010aa4:	005e1021 	addu	v0,v0,s8
80010aa8:	8c470000 	lw	a3,0(v0)
80010aac:	00000000 	nop
80010ab0:	30e20200 	andi	v0,a3,0x200
80010ab4:	10400037 	beqz	v0,80010b94 <env_free+0x154>
80010ab8:	2402f000 	li	v0,-4096
80010abc:	00e2b024 	and	s6,a3,v0
80010ac0:	0016ab02 	srl	s5,s6,0xc
80010ac4:	3c038001 	lui	v1,0x8001
80010ac8:	8c626728 	lw	v0,26408(v1)
80010acc:	00000000 	nop
80010ad0:	02a2102b 	sltu	v0,s5,v0
80010ad4:	14400008 	bnez	v0,80010af8 <env_free+0xb8>
80010ad8:	3c028000 	lui	v0,0x8000
80010adc:	3c048001 	lui	a0,0x8001
80010ae0:	248459a4 	addiu	a0,a0,22948
80010ae4:	2405018c 	li	a1,396
80010ae8:	3c068001 	lui	a2,0x8001
80010aec:	24c659e4 	addiu	a2,a2,23012
80010af0:	0c00496e 	jal	800125b8 <_panic>
80010af4:	02c03821 	move	a3,s6
80010af8:	02c28021 	addu	s0,s6,v0
80010afc:	00008821 	move	s1,zero
80010b00:	00179d80 	sll	s3,s7,0x16
80010b04:	24120400 	li	s2,1024
80010b08:	8e020000 	lw	v0,0(s0)
80010b0c:	00000000 	nop
80010b10:	30420200 	andi	v0,v0,0x200
80010b14:	10400005 	beqz	v0,80010b2c <env_free+0xec>
80010b18:	00000000 	nop
80010b1c:	00112b00 	sll	a1,s1,0xc
80010b20:	8e8400b0 	lw	a0,176(s4)
80010b24:	0c00508e 	jal	80014238 <page_remove>
80010b28:	02652825 	or	a1,s3,a1
80010b2c:	26310001 	addiu	s1,s1,1
80010b30:	1632fff5 	bne	s1,s2,80010b08 <env_free+0xc8>
80010b34:	26100004 	addiu	s0,s0,4
80010b38:	8e8200b0 	lw	v0,176(s4)
80010b3c:	00000000 	nop
80010b40:	005e1021 	addu	v0,v0,s8
80010b44:	ac400000 	sw	zero,0(v0)
80010b48:	3c038001 	lui	v1,0x8001
80010b4c:	8c626728 	lw	v0,26408(v1)
80010b50:	00000000 	nop
80010b54:	02a2102b 	sltu	v0,s5,v0
80010b58:	14400008 	bnez	v0,80010b7c <env_free+0x13c>
80010b5c:	00151080 	sll	v0,s5,0x2
80010b60:	3c048001 	lui	a0,0x8001
80010b64:	248459d0 	addiu	a0,a0,22992
80010b68:	24050029 	li	a1,41
80010b6c:	3c068001 	lui	a2,0x8001
80010b70:	24c65aa4 	addiu	a2,a2,23204
80010b74:	0c00496e 	jal	800125b8 <_panic>
80010b78:	02c03821 	move	a3,s6
80010b7c:	00152100 	sll	a0,s5,0x4
80010b80:	00822023 	subu	a0,a0,v0
80010b84:	3c028001 	lui	v0,0x8001
80010b88:	8c42673c 	lw	v0,26428(v0)
80010b8c:	0c005080 	jal	80014200 <page_decref>
80010b90:	00822021 	addu	a0,a0,v0
80010b94:	26f70001 	addiu	s7,s7,1
80010b98:	240201fd 	li	v0,509
80010b9c:	16e2ffbf 	bne	s7,v0,80010a9c <env_free+0x5c>
80010ba0:	0017f080 	sll	s8,s7,0x2
80010ba4:	8e8700b4 	lw	a3,180(s4)
80010ba8:	ae8000b0 	sw	zero,176(s4)
80010bac:	ae8000b4 	sw	zero,180(s4)
80010bb0:	00072302 	srl	a0,a3,0xc
80010bb4:	3c028001 	lui	v0,0x8001
80010bb8:	8c426728 	lw	v0,26408(v0)
80010bbc:	00000000 	nop
80010bc0:	0082102b 	sltu	v0,a0,v0
80010bc4:	14400007 	bnez	v0,80010be4 <env_free+0x1a4>
80010bc8:	00041080 	sll	v0,a0,0x2
80010bcc:	3c048001 	lui	a0,0x8001
80010bd0:	248459d0 	addiu	a0,a0,22992
80010bd4:	24050029 	li	a1,41
80010bd8:	3c068001 	lui	a2,0x8001
80010bdc:	0c00496e 	jal	800125b8 <_panic>
80010be0:	24c65aa4 	addiu	a2,a2,23204
80010be4:	00042100 	sll	a0,a0,0x4
80010be8:	00822023 	subu	a0,a0,v0
80010bec:	3c028001 	lui	v0,0x8001
80010bf0:	8c42673c 	lw	v0,26428(v0)
80010bf4:	0c005080 	jal	80014200 <page_decref>
80010bf8:	00822021 	addu	a0,a0,v0
80010bfc:	ae8000ac 	sw	zero,172(s4)
80010c00:	3c038001 	lui	v1,0x8001
80010c04:	8c62662c 	lw	v0,26156(v1)
80010c08:	00000000 	nop
80010c0c:	10400004 	beqz	v0,80010c20 <env_free+0x1e0>
80010c10:	ae82009c 	sw	v0,156(s4)
80010c14:	8c63662c 	lw	v1,26156(v1)
80010c18:	2682009c 	addiu	v0,s4,156
80010c1c:	ac6200a0 	sw	v0,160(v1)
80010c20:	3c028001 	lui	v0,0x8001
80010c24:	ac54662c 	sw	s4,26156(v0)
80010c28:	2442662c 	addiu	v0,v0,26156
80010c2c:	ae8200a0 	sw	v0,160(s4)
80010c30:	8e8300b8 	lw	v1,184(s4)
80010c34:	00000000 	nop
80010c38:	10600004 	beqz	v1,80010c4c <env_free+0x20c>
80010c3c:	00000000 	nop
80010c40:	8e8200bc 	lw	v0,188(s4)
80010c44:	00000000 	nop
80010c48:	ac6200bc 	sw	v0,188(v1)
80010c4c:	8e8300bc 	lw	v1,188(s4)
80010c50:	8e8200b8 	lw	v0,184(s4)
80010c54:	00000000 	nop
80010c58:	ac620000 	sw	v0,0(v1)
80010c5c:	8e8300c0 	lw	v1,192(s4)
80010c60:	00000000 	nop
80010c64:	10600004 	beqz	v1,80010c78 <env_free+0x238>
80010c68:	00000000 	nop
80010c6c:	8e8200c4 	lw	v0,196(s4)
80010c70:	00000000 	nop
80010c74:	ac6200c4 	sw	v0,196(v1)
80010c78:	8e8300c4 	lw	v1,196(s4)
80010c7c:	8e8200c0 	lw	v0,192(s4)
80010c80:	00000000 	nop
80010c84:	ac620000 	sw	v0,0(v1)
80010c88:	8fbf0034 	lw	ra,52(sp)
80010c8c:	8fbe0030 	lw	s8,48(sp)
80010c90:	8fb7002c 	lw	s7,44(sp)
80010c94:	8fb60028 	lw	s6,40(sp)
80010c98:	8fb50024 	lw	s5,36(sp)
80010c9c:	8fb40020 	lw	s4,32(sp)
80010ca0:	8fb3001c 	lw	s3,28(sp)
80010ca4:	8fb20018 	lw	s2,24(sp)
80010ca8:	8fb10014 	lw	s1,20(sp)
80010cac:	8fb00010 	lw	s0,16(sp)
80010cb0:	03e00008 	jr	ra
80010cb4:	27bd0038 	addiu	sp,sp,56

80010cb8 <env_destroy>:
80010cb8:	27bdffe8 	addiu	sp,sp,-24
80010cbc:	afbf0014 	sw	ra,20(sp)
80010cc0:	afb00010 	sw	s0,16(sp)
80010cc4:	0c004290 	jal	80010a40 <env_free>
80010cc8:	00808021 	move	s0,a0
80010ccc:	3c038001 	lui	v1,0x8001
80010cd0:	8c626624 	lw	v0,26148(v1)
80010cd4:	00000000 	nop
80010cd8:	1602000e 	bne	s0,v0,80010d14 <env_destroy+0x5c>
80010cdc:	3c028002 	lui	v0,0x8002
80010ce0:	ac606624 	sw	zero,26148(v1)
80010ce4:	8c4490c0 	lw	a0,-28480(v0)
80010ce8:	00000000 	nop
80010cec:	2484ff64 	addiu	a0,a0,-156
80010cf0:	3c0581ff 	lui	a1,0x81ff
80010cf4:	34a5ff64 	ori	a1,a1,0xff64
80010cf8:	0c004040 	jal	80010100 <bcopy>
80010cfc:	2406009c 	li	a2,156
80010d00:	3c048001 	lui	a0,0x8001
80010d04:	0c00495e 	jal	80012578 <printf>
80010d08:	24845ac8 	addiu	a0,a0,23240
80010d0c:	0c004988 	jal	80012620 <sched_yield>
80010d10:	00000000 	nop
80010d14:	8fbf0014 	lw	ra,20(sp)
80010d18:	8fb00010 	lw	s0,16(sp)
80010d1c:	03e00008 	jr	ra
80010d20:	27bd0018 	addiu	sp,sp,24

80010d24 <env_run>:
80010d24:	27bdffe0 	addiu	sp,sp,-32
80010d28:	afbf0018 	sw	ra,24(sp)
80010d2c:	afb10014 	sw	s1,20(sp)
80010d30:	afb00010 	sw	s0,16(sp)
80010d34:	3c108001 	lui	s0,0x8001
80010d38:	8e056624 	lw	a1,26148(s0)
80010d3c:	00000000 	nop
80010d40:	10a0000b 	beqz	a1,80010d70 <env_run+0x4c>
80010d44:	00808821 	move	s1,a0
80010d48:	3c0481ff 	lui	a0,0x81ff
80010d4c:	3484ff64 	ori	a0,a0,0xff64
80010d50:	0c004040 	jal	80010100 <bcopy>
80010d54:	2406009c 	li	a2,156
80010d58:	8e036624 	lw	v1,26148(s0)
80010d5c:	00000000 	nop
80010d60:	8c620094 	lw	v0,148(v1)
80010d64:	00000000 	nop
80010d68:	ac620098 	sw	v0,152(v1)
80010d6c:	3c108001 	lui	s0,0x8001
80010d70:	12200015 	beqz	s1,80010dc8 <env_run+0xa4>
80010d74:	ae116624 	sw	s1,26148(s0)
80010d78:	24020001 	li	v0,1
80010d7c:	ae2200ac 	sw	v0,172(s1)
80010d80:	8e036624 	lw	v1,26148(s0)
80010d84:	00000000 	nop
80010d88:	8c6200e8 	lw	v0,232(v1)
80010d8c:	00000000 	nop
80010d90:	24420001 	addiu	v0,v0,1
80010d94:	ac6200e8 	sw	v0,232(v1)
80010d98:	8e026624 	lw	v0,26148(s0)
80010d9c:	00000000 	nop
80010da0:	8c4400b0 	lw	a0,176(v0)
80010da4:	0c0044dd 	jal	80011374 <lcontext>
80010da8:	00000000 	nop
80010dac:	8e046624 	lw	a0,26148(s0)
80010db0:	00000000 	nop
80010db4:	8c8500a4 	lw	a1,164(a0)
80010db8:	00000000 	nop
80010dbc:	00052ac2 	srl	a1,a1,0xb
80010dc0:	0c0044ac 	jal	800112b0 <env_pop_tf>
80010dc4:	00052980 	sll	a1,a1,0x6
80010dc8:	8fbf0018 	lw	ra,24(sp)
80010dcc:	8fb10014 	lw	s1,20(sp)
80010dd0:	8fb00010 	lw	s0,16(sp)
80010dd4:	03e00008 	jr	ra
80010dd8:	27bd0020 	addiu	sp,sp,32

80010ddc <env_check>:
80010ddc:	27bdffd8 	addiu	sp,sp,-40
80010de0:	afbf0024 	sw	ra,36(sp)
80010de4:	afb00020 	sw	s0,32(sp)
80010de8:	afa00014 	sw	zero,20(sp)
80010dec:	afa00018 	sw	zero,24(sp)
80010df0:	afa0001c 	sw	zero,28(sp)
80010df4:	27a40014 	addiu	a0,sp,20
80010df8:	0c004167 	jal	8001059c <env_alloc>
80010dfc:	00002821 	move	a1,zero
80010e00:	10400009 	beqz	v0,80010e28 <env_check+0x4c>
80010e04:	27a40018 	addiu	a0,sp,24
80010e08:	3c048001 	lui	a0,0x8001
80010e0c:	248459a4 	addiu	a0,a0,22948
80010e10:	240501f8 	li	a1,504
80010e14:	3c068001 	lui	a2,0x8001
80010e18:	24c65adc 	addiu	a2,a2,23260
80010e1c:	3c078001 	lui	a3,0x8001
80010e20:	0c00496e 	jal	800125b8 <_panic>
80010e24:	24e75af4 	addiu	a3,a3,23284
80010e28:	0c004167 	jal	8001059c <env_alloc>
80010e2c:	00002821 	move	a1,zero
80010e30:	10400009 	beqz	v0,80010e58 <env_check+0x7c>
80010e34:	27a4001c 	addiu	a0,sp,28
80010e38:	3c048001 	lui	a0,0x8001
80010e3c:	248459a4 	addiu	a0,a0,22948
80010e40:	240501f9 	li	a1,505
80010e44:	3c068001 	lui	a2,0x8001
80010e48:	24c65adc 	addiu	a2,a2,23260
80010e4c:	3c078001 	lui	a3,0x8001
80010e50:	0c00496e 	jal	800125b8 <_panic>
80010e54:	24e75b0c 	addiu	a3,a3,23308
80010e58:	0c004167 	jal	8001059c <env_alloc>
80010e5c:	00002821 	move	a1,zero
80010e60:	10400008 	beqz	v0,80010e84 <env_check+0xa8>
80010e64:	3c048001 	lui	a0,0x8001
80010e68:	248459a4 	addiu	a0,a0,22948
80010e6c:	240501fa 	li	a1,506
80010e70:	3c068001 	lui	a2,0x8001
80010e74:	24c65adc 	addiu	a2,a2,23260
80010e78:	3c078001 	lui	a3,0x8001
80010e7c:	0c00496e 	jal	800125b8 <_panic>
80010e80:	24e75b24 	addiu	a3,a3,23332
80010e84:	8fa40014 	lw	a0,20(sp)
80010e88:	00000000 	nop
80010e8c:	14800008 	bnez	a0,80010eb0 <env_check+0xd4>
80010e90:	240501fc 	li	a1,508
80010e94:	3c048001 	lui	a0,0x8001
80010e98:	248459a4 	addiu	a0,a0,22948
80010e9c:	3c068001 	lui	a2,0x8001
80010ea0:	24c65adc 	addiu	a2,a2,23260
80010ea4:	3c078001 	lui	a3,0x8001
80010ea8:	0c00496e 	jal	800125b8 <_panic>
80010eac:	24e75b6c 	addiu	a3,a3,23404
80010eb0:	8fa30018 	lw	v1,24(sp)
80010eb4:	00000000 	nop
80010eb8:	10600003 	beqz	v1,80010ec8 <env_check+0xec>
80010ebc:	00000000 	nop
80010ec0:	14830009 	bne	a0,v1,80010ee8 <env_check+0x10c>
80010ec4:	00000000 	nop
80010ec8:	3c048001 	lui	a0,0x8001
80010ecc:	248459a4 	addiu	a0,a0,22948
80010ed0:	240501fd 	li	a1,509
80010ed4:	3c068001 	lui	a2,0x8001
80010ed8:	24c65adc 	addiu	a2,a2,23260
80010edc:	3c078001 	lui	a3,0x8001
80010ee0:	0c00496e 	jal	800125b8 <_panic>
80010ee4:	24e75b3c 	addiu	a3,a3,23356
80010ee8:	8fa2001c 	lw	v0,28(sp)
80010eec:	00000000 	nop
80010ef0:	10400005 	beqz	v0,80010f08 <env_check+0x12c>
80010ef4:	00000000 	nop
80010ef8:	10620003 	beq	v1,v0,80010f08 <env_check+0x12c>
80010efc:	00000000 	nop
80010f00:	14820009 	bne	a0,v0,80010f28 <env_check+0x14c>
80010f04:	3c028001 	lui	v0,0x8001
80010f08:	3c048001 	lui	a0,0x8001
80010f0c:	248459a4 	addiu	a0,a0,22948
80010f10:	240501fe 	li	a1,510
80010f14:	3c068001 	lui	a2,0x8001
80010f18:	24c65adc 	addiu	a2,a2,23260
80010f1c:	3c078001 	lui	a3,0x8001
80010f20:	0c00496e 	jal	800125b8 <_panic>
80010f24:	24e75b50 	addiu	a3,a3,23376
80010f28:	8c50662c 	lw	s0,26156(v0)
80010f2c:	ac40662c 	sw	zero,26156(v0)
80010f30:	27a40010 	addiu	a0,sp,16
80010f34:	0c004167 	jal	8001059c <env_alloc>
80010f38:	00002821 	move	a1,zero
80010f3c:	2403fffb 	li	v1,-5
80010f40:	10430009 	beq	v0,v1,80010f68 <env_check+0x18c>
80010f44:	3c028001 	lui	v0,0x8001
80010f48:	3c048001 	lui	a0,0x8001
80010f4c:	248459a4 	addiu	a0,a0,22948
80010f50:	24050206 	li	a1,518
80010f54:	3c068001 	lui	a2,0x8001
80010f58:	24c65adc 	addiu	a2,a2,23260
80010f5c:	3c078001 	lui	a3,0x8001
80010f60:	0c00496e 	jal	800125b8 <_panic>
80010f64:	24e75b70 	addiu	a3,a3,23408
80010f68:	ac50662c 	sw	s0,26156(v0)
80010f6c:	3c048001 	lui	a0,0x8001
80010f70:	8fa20014 	lw	v0,20(sp)
80010f74:	00000000 	nop
80010f78:	8c4500a4 	lw	a1,164(v0)
80010f7c:	0c00495e 	jal	80012578 <printf>
80010f80:	24845b94 	addiu	a0,a0,23444
80010f84:	3c048001 	lui	a0,0x8001
80010f88:	8fa20018 	lw	v0,24(sp)
80010f8c:	00000000 	nop
80010f90:	8c4500a4 	lw	a1,164(v0)
80010f94:	0c00495e 	jal	80012578 <printf>
80010f98:	24845ba4 	addiu	a0,a0,23460
80010f9c:	3c048001 	lui	a0,0x8001
80010fa0:	8fa2001c 	lw	v0,28(sp)
80010fa4:	00000000 	nop
80010fa8:	8c4500a4 	lw	a1,164(v0)
80010fac:	0c00495e 	jal	80012578 <printf>
80010fb0:	24845bb4 	addiu	a0,a0,23476
80010fb4:	8fa20014 	lw	v0,20(sp)
80010fb8:	00000000 	nop
80010fbc:	8c4300a4 	lw	v1,164(v0)
80010fc0:	24020800 	li	v0,2048
80010fc4:	10620008 	beq	v1,v0,80010fe8 <env_check+0x20c>
80010fc8:	3c048001 	lui	a0,0x8001
80010fcc:	248459a4 	addiu	a0,a0,22948
80010fd0:	2405020f 	li	a1,527
80010fd4:	3c068001 	lui	a2,0x8001
80010fd8:	24c65adc 	addiu	a2,a2,23260
80010fdc:	3c078001 	lui	a3,0x8001
80010fe0:	0c00496e 	jal	800125b8 <_panic>
80010fe4:	24e75bc4 	addiu	a3,a3,23492
80010fe8:	8fa20018 	lw	v0,24(sp)
80010fec:	00000000 	nop
80010ff0:	8c4300a4 	lw	v1,164(v0)
80010ff4:	24021001 	li	v0,4097
80010ff8:	10620007 	beq	v1,v0,80011018 <env_check+0x23c>
80010ffc:	248459a4 	addiu	a0,a0,22948
80011000:	24050210 	li	a1,528
80011004:	3c068001 	lui	a2,0x8001
80011008:	24c65adc 	addiu	a2,a2,23260
8001100c:	3c078001 	lui	a3,0x8001
80011010:	0c00496e 	jal	800125b8 <_panic>
80011014:	24e75bd8 	addiu	a3,a3,23512
80011018:	8fa2001c 	lw	v0,28(sp)
8001101c:	00000000 	nop
80011020:	8c4300a4 	lw	v1,164(v0)
80011024:	24021802 	li	v0,6146
80011028:	10620008 	beq	v1,v0,8001104c <env_check+0x270>
8001102c:	24050211 	li	a1,529
80011030:	3c048001 	lui	a0,0x8001
80011034:	248459a4 	addiu	a0,a0,22948
80011038:	3c068001 	lui	a2,0x8001
8001103c:	24c65adc 	addiu	a2,a2,23260
80011040:	3c078001 	lui	a3,0x8001
80011044:	0c00496e 	jal	800125b8 <_panic>
80011048:	24e75bec 	addiu	a3,a3,23532
8001104c:	3c048001 	lui	a0,0x8001
80011050:	0c00495e 	jal	80012578 <printf>
80011054:	24845c00 	addiu	a0,a0,23552
80011058:	8fa2001c 	lw	v0,28(sp)
8001105c:	00000000 	nop
80011060:	ac4000ac 	sw	zero,172(v0)
80011064:	8fa2001c 	lw	v0,28(sp)
80011068:	00000000 	nop
8001106c:	8c4400a4 	lw	a0,164(v0)
80011070:	27a50010 	addiu	a1,sp,16
80011074:	0c0040a0 	jal	80010280 <envid2env>
80011078:	00003021 	move	a2,zero
8001107c:	00401821 	move	v1,v0
80011080:	8fa20010 	lw	v0,16(sp)
80011084:	00000000 	nop
80011088:	14400003 	bnez	v0,80011098 <env_check+0x2bc>
8001108c:	2402fffe 	li	v0,-2
80011090:	10620009 	beq	v1,v0,800110b8 <env_check+0x2dc>
80011094:	24030001 	li	v1,1
80011098:	3c048001 	lui	a0,0x8001
8001109c:	248459a4 	addiu	a0,a0,22948
800110a0:	24050217 	li	a1,535
800110a4:	3c068001 	lui	a2,0x8001
800110a8:	24c65adc 	addiu	a2,a2,23260
800110ac:	3c078001 	lui	a3,0x8001
800110b0:	0c00496e 	jal	800125b8 <_panic>
800110b4:	24e75c18 	addiu	a3,a3,23576
800110b8:	8fa2001c 	lw	v0,28(sp)
800110bc:	00000000 	nop
800110c0:	ac4300ac 	sw	v1,172(v0)
800110c4:	8fa2001c 	lw	v0,28(sp)
800110c8:	00000000 	nop
800110cc:	8c4400a4 	lw	a0,164(v0)
800110d0:	27a50010 	addiu	a1,sp,16
800110d4:	0c0040a0 	jal	80010280 <envid2env>
800110d8:	00003021 	move	a2,zero
800110dc:	00402021 	move	a0,v0
800110e0:	8fa5001c 	lw	a1,28(sp)
800110e4:	8fa20010 	lw	v0,16(sp)
800110e8:	00000000 	nop
800110ec:	8c4300a4 	lw	v1,164(v0)
800110f0:	8ca200a4 	lw	v0,164(a1)
800110f4:	00000000 	nop
800110f8:	14620003 	bne	v1,v0,80011108 <env_check+0x32c>
800110fc:	00000000 	nop
80011100:	10800009 	beqz	a0,80011128 <env_check+0x34c>
80011104:	3c028001 	lui	v0,0x8001
80011108:	3c048001 	lui	a0,0x8001
8001110c:	248459a4 	addiu	a0,a0,22948
80011110:	2405021c 	li	a1,540
80011114:	3c068001 	lui	a2,0x8001
80011118:	24c65adc 	addiu	a2,a2,23260
8001111c:	3c078001 	lui	a3,0x8001
80011120:	0c00496e 	jal	800125b8 <_panic>
80011124:	24e75c34 	addiu	a3,a3,23604
80011128:	8c506624 	lw	s0,26148(v0)
8001112c:	8fa30014 	lw	v1,20(sp)
80011130:	00000000 	nop
80011134:	ac436624 	sw	v1,26148(v0)
80011138:	8ca400a4 	lw	a0,164(a1)
8001113c:	27a50010 	addiu	a1,sp,16
80011140:	0c0040a0 	jal	80010280 <envid2env>
80011144:	24060001 	li	a2,1
80011148:	00401821 	move	v1,v0
8001114c:	8fa20010 	lw	v0,16(sp)
80011150:	00000000 	nop
80011154:	14400003 	bnez	v0,80011164 <env_check+0x388>
80011158:	2402fffe 	li	v0,-2
8001115c:	10620009 	beq	v1,v0,80011184 <env_check+0x3a8>
80011160:	3c028001 	lui	v0,0x8001
80011164:	3c048001 	lui	a0,0x8001
80011168:	248459a4 	addiu	a0,a0,22948
8001116c:	24050221 	li	a1,545
80011170:	3c068001 	lui	a2,0x8001
80011174:	24c65adc 	addiu	a2,a2,23260
80011178:	3c078001 	lui	a3,0x8001
8001117c:	0c00496e 	jal	800125b8 <_panic>
80011180:	24e75c18 	addiu	a3,a3,23576
80011184:	ac506624 	sw	s0,26148(v0)
80011188:	3c048001 	lui	a0,0x8001
8001118c:	0c00495e 	jal	80012578 <printf>
80011190:	24845c58 	addiu	a0,a0,23640
80011194:	3c048001 	lui	a0,0x8001
80011198:	8fa20018 	lw	v0,24(sp)
8001119c:	00000000 	nop
800111a0:	8c4500b0 	lw	a1,176(v0)
800111a4:	0c00495e 	jal	80012578 <printf>
800111a8:	24845c70 	addiu	a0,a0,23664
800111ac:	3c048001 	lui	a0,0x8001
800111b0:	8fa20018 	lw	v0,24(sp)
800111b4:	00000000 	nop
800111b8:	8c4500b4 	lw	a1,180(v0)
800111bc:	0c00495e 	jal	80012578 <printf>
800111c0:	24845c84 	addiu	a0,a0,23684
800111c4:	8fa2001c 	lw	v0,28(sp)
800111c8:	00000000 	nop
800111cc:	8c4400b0 	lw	a0,176(v0)
800111d0:	3c028001 	lui	v0,0x8001
800111d4:	8c42672c 	lw	v0,26412(v0)
800111d8:	8c8307f4 	lw	v1,2036(a0)
800111dc:	8c4207f4 	lw	v0,2036(v0)
800111e0:	00000000 	nop
800111e4:	10620008 	beq	v1,v0,80011208 <env_check+0x42c>
800111e8:	24050229 	li	a1,553
800111ec:	3c048001 	lui	a0,0x8001
800111f0:	248459a4 	addiu	a0,a0,22948
800111f4:	3c068001 	lui	a2,0x8001
800111f8:	24c65adc 	addiu	a2,a2,23260
800111fc:	3c078001 	lui	a3,0x8001
80011200:	0c00496e 	jal	800125b8 <_panic>
80011204:	24e75c98 	addiu	a3,a3,23704
80011208:	8c8207f0 	lw	v0,2032(a0)
8001120c:	00000000 	nop
80011210:	10400008 	beqz	v0,80011234 <env_check+0x458>
80011214:	2405022a 	li	a1,554
80011218:	3c048001 	lui	a0,0x8001
8001121c:	248459a4 	addiu	a0,a0,22948
80011220:	3c068001 	lui	a2,0x8001
80011224:	24c65adc 	addiu	a2,a2,23260
80011228:	3c078001 	lui	a3,0x8001
8001122c:	0c00496e 	jal	800125b8 <_panic>
80011230:	24e75ccc 	addiu	a3,a3,23756
80011234:	3c048001 	lui	a0,0x8001
80011238:	0c00495e 	jal	80012578 <printf>
8001123c:	24845cf0 	addiu	a0,a0,23792
80011240:	8fa5001c 	lw	a1,28(sp)
80011244:	00000000 	nop
80011248:	8ca30080 	lw	v1,128(a1)
8001124c:	3c021000 	lui	v0,0x1000
80011250:	34421004 	ori	v0,v0,0x1004
80011254:	10620008 	beq	v1,v0,80011278 <env_check+0x49c>
80011258:	3c068001 	lui	a2,0x8001
8001125c:	3c048001 	lui	a0,0x8001
80011260:	248459a4 	addiu	a0,a0,22948
80011264:	2405022d 	li	a1,557
80011268:	24c65adc 	addiu	a2,a2,23260
8001126c:	3c078001 	lui	a3,0x8001
80011270:	0c00496e 	jal	800125b8 <_panic>
80011274:	24e75d08 	addiu	a3,a3,23816
80011278:	3c048001 	lui	a0,0x8001
8001127c:	8ca50074 	lw	a1,116(a1)
80011280:	0c00495e 	jal	80012578 <printf>
80011284:	24845d30 	addiu	a0,a0,23856
80011288:	3c048001 	lui	a0,0x8001
8001128c:	0c00495e 	jal	80012578 <printf>
80011290:	24845d48 	addiu	a0,a0,23880
80011294:	8fbf0024 	lw	ra,36(sp)
80011298:	8fb00020 	lw	s0,32(sp)
8001129c:	03e00008 	jr	ra
800112a0:	27bd0028 	addiu	sp,sp,40
	...

800112b0 <env_pop_tf>:
800112b0:	00000000 	nop
800112b4:	0080d021 	move	k0,a0
800112b8:	40855000 	mtc0	a1,$10
800112bc:	40086000 	mfc0	t0,$12
800112c0:	35080003 	ori	t0,t0,0x3
800112c4:	39080003 	xori	t0,t0,0x3
800112c8:	40886000 	mtc0	t0,$12
800112cc:	8f430088 	lw	v1,136(k0)
800112d0:	00600013 	mtlo	v1
800112d4:	8f420084 	lw	v0,132(k0)
800112d8:	8f430094 	lw	v1,148(k0)
800112dc:	00400011 	mthi	v0
800112e0:	40837000 	mtc0	v1,$14
800112e4:	8f5f007c 	lw	ra,124(k0)
800112e8:	8f5e0078 	lw	s8,120(k0)
800112ec:	8f5d0074 	lw	sp,116(k0)
800112f0:	8f5c0070 	lw	gp,112(k0)
800112f4:	8f590064 	lw	t9,100(k0)
800112f8:	8f580060 	lw	t8,96(k0)
800112fc:	8f57005c 	lw	s7,92(k0)
80011300:	8f560058 	lw	s6,88(k0)
80011304:	8f550054 	lw	s5,84(k0)
80011308:	8f540050 	lw	s4,80(k0)
8001130c:	8f53004c 	lw	s3,76(k0)
80011310:	8f520048 	lw	s2,72(k0)
80011314:	8f510044 	lw	s1,68(k0)
80011318:	8f500040 	lw	s0,64(k0)
8001131c:	8f4f003c 	lw	t7,60(k0)
80011320:	8f4e0038 	lw	t6,56(k0)
80011324:	8f4d0034 	lw	t5,52(k0)
80011328:	8f4c0030 	lw	t4,48(k0)
8001132c:	8f4b002c 	lw	t3,44(k0)
80011330:	8f4a0028 	lw	t2,40(k0)
80011334:	8f490024 	lw	t1,36(k0)
80011338:	8f480020 	lw	t0,32(k0)
8001133c:	8f47001c 	lw	a3,28(k0)
80011340:	8f460018 	lw	a2,24(k0)
80011344:	8f450014 	lw	a1,20(k0)
80011348:	8f440010 	lw	a0,16(k0)
8001134c:	8f43000c 	lw	v1,12(k0)
80011350:	8f420008 	lw	v0,8(k0)
80011354:	8f410004 	lw	at,4(k0)
80011358:	8f5b0098 	lw	k1,152(k0)
8001135c:	8f5a0080 	lw	k0,128(k0)
80011360:	00000000 	nop
80011364:	409a6000 	mtc0	k0,$12
80011368:	03600008 	jr	k1
8001136c:	42000010 	rfe
80011370:	00000000 	nop

80011374 <lcontext>:
80011374:	3c018001 	lui	at,0x8001
80011378:	ac246740 	sw	a0,26432(at)
8001137c:	03e00008 	jr	ra
80011380:	00000000 	nop
	...

800113a0 <ret_from_exception>:
800113a0:	40086000 	mfc0	t0,$12
800113a4:	35080003 	ori	t0,t0,0x3
800113a8:	39080003 	xori	t0,t0,0x3
800113ac:	40886000 	mtc0	t0,$12
800113b0:	8fa20080 	lw	v0,128(sp)
800113b4:	3403ff00 	li	v1,0xff00
800113b8:	01034024 	and	t0,t0,v1
800113bc:	00031827 	nor	v1,zero,v1
800113c0:	00431024 	and	v0,v0,v1
800113c4:	00481025 	or	v0,v0,t0
800113c8:	40826000 	mtc0	v0,$12
800113cc:	8fa30088 	lw	v1,136(sp)
800113d0:	00600013 	mtlo	v1
800113d4:	8fa20084 	lw	v0,132(sp)
800113d8:	8fa30094 	lw	v1,148(sp)
800113dc:	00400011 	mthi	v0
800113e0:	40837000 	mtc0	v1,$14
800113e4:	8fbf007c 	lw	ra,124(sp)
800113e8:	8fbe0078 	lw	s8,120(sp)
800113ec:	8fbc0070 	lw	gp,112(sp)
800113f0:	8fb90064 	lw	t9,100(sp)
800113f4:	8fb80060 	lw	t8,96(sp)
800113f8:	8fb7005c 	lw	s7,92(sp)
800113fc:	8fb60058 	lw	s6,88(sp)
80011400:	8fb50054 	lw	s5,84(sp)
80011404:	8fb40050 	lw	s4,80(sp)
80011408:	8fb3004c 	lw	s3,76(sp)
8001140c:	8fb20048 	lw	s2,72(sp)
80011410:	8fb10044 	lw	s1,68(sp)
80011414:	8fb00040 	lw	s0,64(sp)
80011418:	8faf003c 	lw	t7,60(sp)
8001141c:	8fae0038 	lw	t6,56(sp)
80011420:	8fad0034 	lw	t5,52(sp)
80011424:	8fac0030 	lw	t4,48(sp)
80011428:	8fab002c 	lw	t3,44(sp)
8001142c:	8faa0028 	lw	t2,40(sp)
80011430:	8fa90024 	lw	t1,36(sp)
80011434:	8fa80020 	lw	t0,32(sp)
80011438:	8fa7001c 	lw	a3,28(sp)
8001143c:	8fa60018 	lw	a2,24(sp)
80011440:	8fa50014 	lw	a1,20(sp)
80011444:	8fa40010 	lw	a0,16(sp)
80011448:	8fa3000c 	lw	v1,12(sp)
8001144c:	8fa20008 	lw	v0,8(sp)
80011450:	8fa10004 	lw	at,4(sp)
80011454:	8fba0094 	lw	k0,148(sp)
80011458:	8fbd0074 	lw	sp,116(sp)
8001145c:	00000000 	nop
80011460:	03400008 	jr	k0
80011464:	42000010 	rfe
	...

80011480 <handle_int>:
80011480:	00000000 	nop
80011484:	401a6000 	mfc0	k0,$12
80011488:	001ad0c0 	sll	k0,k0,0x3
8001148c:	07400001 	bltz	k0,80011494 <handle_int+0x14>
80011490:	00000000 	nop
80011494:	03a0d021 	move	k0,sp
80011498:	401b6800 	mfc0	k1,$13
8001149c:	337b107c 	andi	k1,k1,0x107c
800114a0:	3b7b1000 	xori	k1,k1,0x1000
800114a4:	17600004 	bnez	k1,800114b8 <handle_int+0x38>
800114a8:	00000000 	nop
800114ac:	3c1d8200 	lui	sp,0x8200
800114b0:	08004533 	j	800114cc <handle_int+0x4c>
800114b4:	00000000 	nop
800114b8:	07a00004 	bltz	sp,800114cc <handle_int+0x4c>
800114bc:	00000000 	nop
800114c0:	3c1d8002 	lui	sp,0x8002
800114c4:	8fbd90c0 	lw	sp,-28480(sp)
	...
800114d0:	03a0d821 	move	k1,sp
800114d4:	277dff64 	addiu	sp,k1,-156
800114d8:	afba0074 	sw	k0,116(sp)
800114dc:	afa20008 	sw	v0,8(sp)
800114e0:	40026000 	mfc0	v0,$12
800114e4:	afa20080 	sw	v0,128(sp)
800114e8:	40026800 	mfc0	v0,$13
800114ec:	afa20090 	sw	v0,144(sp)
800114f0:	40027000 	mfc0	v0,$14
800114f4:	afa20094 	sw	v0,148(sp)
800114f8:	40024000 	mfc0	v0,$8
800114fc:	afa2008c 	sw	v0,140(sp)
80011500:	00001010 	mfhi	v0
80011504:	afa20084 	sw	v0,132(sp)
80011508:	00001012 	mflo	v0
8001150c:	afa20088 	sw	v0,136(sp)
80011510:	afa00000 	sw	zero,0(sp)
80011514:	afa10004 	sw	at,4(sp)
80011518:	afa3000c 	sw	v1,12(sp)
8001151c:	afa40010 	sw	a0,16(sp)
80011520:	afa50014 	sw	a1,20(sp)
80011524:	afa60018 	sw	a2,24(sp)
80011528:	afa7001c 	sw	a3,28(sp)
8001152c:	afa80020 	sw	t0,32(sp)
80011530:	afa90024 	sw	t1,36(sp)
80011534:	afaa0028 	sw	t2,40(sp)
80011538:	afab002c 	sw	t3,44(sp)
8001153c:	afac0030 	sw	t4,48(sp)
80011540:	afad0034 	sw	t5,52(sp)
80011544:	afae0038 	sw	t6,56(sp)
80011548:	afaf003c 	sw	t7,60(sp)
8001154c:	afb00040 	sw	s0,64(sp)
80011550:	afb10044 	sw	s1,68(sp)
80011554:	afb20048 	sw	s2,72(sp)
80011558:	afb3004c 	sw	s3,76(sp)
8001155c:	afb40050 	sw	s4,80(sp)
80011560:	afb50054 	sw	s5,84(sp)
80011564:	afb60058 	sw	s6,88(sp)
80011568:	afb7005c 	sw	s7,92(sp)
8001156c:	afb80060 	sw	t8,96(sp)
80011570:	afb90064 	sw	t9,100(sp)
80011574:	afba0068 	sw	k0,104(sp)
80011578:	afbb006c 	sw	k1,108(sp)
8001157c:	afbc0070 	sw	gp,112(sp)
80011580:	afbe0078 	sw	s8,120(sp)
80011584:	afbf007c 	sw	ra,124(sp)
80011588:	40086000 	mfc0	t0,$12
8001158c:	3c091000 	lui	t1,0x1000
80011590:	35290001 	ori	t1,t1,0x1
80011594:	01094025 	or	t0,t0,t1
80011598:	39080001 	xori	t0,t0,0x1
8001159c:	40886000 	mtc0	t0,$12
800115a0:	40086800 	mfc0	t0,$13
800115a4:	400a6000 	mfc0	t2,$12
800115a8:	010a4024 	and	t0,t0,t2
800115ac:	31091000 	andi	t1,t0,0x1000
800115b0:	15200001 	bnez	t1,800115b8 <timer_irq>
800115b4:	00000000 	nop

800115b8 <timer_irq>:
800115b8:	08004988 	j	80012620 <sched_yield>
800115bc:	00000000 	nop
800115c0:	080044e8 	j	800113a0 <ret_from_exception>
800115c4:	00000000 	nop

800115c8 <do_refill>:
800115c8:	00000000 	nop
800115cc:	3c1b8001 	lui	k1,0x8001
800115d0:	8f7b6740 	lw	k1,26432(k1)
800115d4:	2401f000 	li	at,-4096
800115d8:	0361d824 	and	k1,k1,at
800115dc:	401a4000 	mfc0	k0,$8
800115e0:	001ad502 	srl	k0,k0,0x14
800115e4:	2401fffc 	li	at,-4
800115e8:	0341d024 	and	k0,k0,at
800115ec:	035bd021 	addu	k0,k0,k1
800115f0:	8f5b0000 	lw	k1,0(k0)
800115f4:	00000000 	nop
800115f8:	03604021 	move	t0,k1
800115fc:	31080200 	andi	t0,t0,0x200
80011600:	1100001c 	beqz	t0,80011674 <NOPAGE>
80011604:	00000000 	nop
80011608:	2401f000 	li	at,-4096
8001160c:	0361d824 	and	k1,k1,at
80011610:	401a4000 	mfc0	k0,$8
80011614:	001ad282 	srl	k0,k0,0xa
80011618:	2401fffc 	li	at,-4
8001161c:	0341d024 	and	k0,k0,at
80011620:	335a0fff 	andi	k0,k0,0xfff
80011624:	035bd021 	addu	k0,k0,k1
80011628:	3c018000 	lui	at,0x8000
8001162c:	0341d025 	or	k0,k0,at
80011630:	8f5b0000 	lw	k1,0(k0)
80011634:	00000000 	nop
80011638:	03604021 	move	t0,k1
8001163c:	31080200 	andi	t0,t0,0x200
80011640:	1100000c 	beqz	t0,80011674 <NOPAGE>
80011644:	00000000 	nop
80011648:	0360d021 	move	k0,k1
8001164c:	335a0001 	andi	k0,k0,0x1
80011650:	13400003 	beqz	k0,80011660 <NoCOW>
80011654:	00000000 	nop
80011658:	2401fbff 	li	at,-1025
8001165c:	0361d824 	and	k1,k1,at

80011660 <NoCOW>:
80011660:	409b1000 	mtc0	k1,$2
80011664:	00000000 	nop
80011668:	42000006 	tlbwr
8001166c:	080045ab 	j	800116ac <NOPAGE+0x38>
80011670:	00000000 	nop

80011674 <NOPAGE>:
80011674:	00000000 	nop
80011678:	40044000 	mfc0	a0,$8
8001167c:	3c058001 	lui	a1,0x8001
80011680:	8ca56740 	lw	a1,26432(a1)
80011684:	00000000 	nop
80011688:	3c018001 	lui	at,0x8001
8001168c:	ac3f6748 	sw	ra,26440(at)
80011690:	0c0055eb 	jal	800157ac <pageout>
80011694:	00000000 	nop
80011698:	00000000 	nop
8001169c:	3c1f8001 	lui	ra,0x8001
800116a0:	8fff6748 	lw	ra,26440(ra)
800116a4:	00000000 	nop
800116a8:	08004572 	j	800115c8 <do_refill>
800116ac:	00000000 	nop
800116b0:	03e00008 	jr	ra
800116b4:	00000000 	nop
	...

800116c0 <handle_reserved>:
800116c0:	00000000 	nop
800116c4:	401a6000 	mfc0	k0,$12
800116c8:	001ad0c0 	sll	k0,k0,0x3
800116cc:	07400001 	bltz	k0,800116d4 <handle_reserved+0x14>
800116d0:	00000000 	nop
800116d4:	03a0d021 	move	k0,sp
800116d8:	401b6800 	mfc0	k1,$13
800116dc:	337b107c 	andi	k1,k1,0x107c
800116e0:	3b7b1000 	xori	k1,k1,0x1000
800116e4:	17600004 	bnez	k1,800116f8 <handle_reserved+0x38>
800116e8:	00000000 	nop
800116ec:	3c1d8200 	lui	sp,0x8200
800116f0:	080045c3 	j	8001170c <handle_reserved+0x4c>
800116f4:	00000000 	nop
800116f8:	07a00004 	bltz	sp,8001170c <handle_reserved+0x4c>
800116fc:	00000000 	nop
80011700:	3c1d8002 	lui	sp,0x8002
80011704:	8fbd90c0 	lw	sp,-28480(sp)
	...
80011710:	03a0d821 	move	k1,sp
80011714:	277dff64 	addiu	sp,k1,-156
80011718:	afba0074 	sw	k0,116(sp)
8001171c:	afa20008 	sw	v0,8(sp)
80011720:	40026000 	mfc0	v0,$12
80011724:	afa20080 	sw	v0,128(sp)
80011728:	40026800 	mfc0	v0,$13
8001172c:	afa20090 	sw	v0,144(sp)
80011730:	40027000 	mfc0	v0,$14
80011734:	afa20094 	sw	v0,148(sp)
80011738:	40024000 	mfc0	v0,$8
8001173c:	afa2008c 	sw	v0,140(sp)
80011740:	00001010 	mfhi	v0
80011744:	afa20084 	sw	v0,132(sp)
80011748:	00001012 	mflo	v0
8001174c:	afa20088 	sw	v0,136(sp)
80011750:	afa00000 	sw	zero,0(sp)
80011754:	afa10004 	sw	at,4(sp)
80011758:	afa3000c 	sw	v1,12(sp)
8001175c:	afa40010 	sw	a0,16(sp)
80011760:	afa50014 	sw	a1,20(sp)
80011764:	afa60018 	sw	a2,24(sp)
80011768:	afa7001c 	sw	a3,28(sp)
8001176c:	afa80020 	sw	t0,32(sp)
80011770:	afa90024 	sw	t1,36(sp)
80011774:	afaa0028 	sw	t2,40(sp)
80011778:	afab002c 	sw	t3,44(sp)
8001177c:	afac0030 	sw	t4,48(sp)
80011780:	afad0034 	sw	t5,52(sp)
80011784:	afae0038 	sw	t6,56(sp)
80011788:	afaf003c 	sw	t7,60(sp)
8001178c:	afb00040 	sw	s0,64(sp)
80011790:	afb10044 	sw	s1,68(sp)
80011794:	afb20048 	sw	s2,72(sp)
80011798:	afb3004c 	sw	s3,76(sp)
8001179c:	afb40050 	sw	s4,80(sp)
800117a0:	afb50054 	sw	s5,84(sp)
800117a4:	afb60058 	sw	s6,88(sp)
800117a8:	afb7005c 	sw	s7,92(sp)
800117ac:	afb80060 	sw	t8,96(sp)
800117b0:	afb90064 	sw	t9,100(sp)
800117b4:	afba0068 	sw	k0,104(sp)
800117b8:	afbb006c 	sw	k1,108(sp)
800117bc:	afbc0070 	sw	gp,112(sp)
800117c0:	afbe0078 	sw	s8,120(sp)
800117c4:	afbf007c 	sw	ra,124(sp)
800117c8:	40086000 	mfc0	t0,$12
800117cc:	3c091000 	lui	t1,0x1000
800117d0:	35290001 	ori	t1,t1,0x1
800117d4:	01094025 	or	t0,t0,t1
800117d8:	39080001 	xori	t0,t0,0x1
800117dc:	40886000 	mtc0	t0,$12
800117e0:	03a02021 	move	a0,sp
800117e4:	0c004572 	jal	800115c8 <do_refill>
800117e8:	00000000 	nop
800117ec:	080044e8 	j	800113a0 <ret_from_exception>
800117f0:	00000000 	nop
	...

80011800 <handle_tlb>:
80011800:	00000000 	nop
80011804:	401a6000 	mfc0	k0,$12
80011808:	001ad0c0 	sll	k0,k0,0x3
8001180c:	07400001 	bltz	k0,80011814 <handle_tlb+0x14>
80011810:	00000000 	nop
80011814:	03a0d021 	move	k0,sp
80011818:	401b6800 	mfc0	k1,$13
8001181c:	337b107c 	andi	k1,k1,0x107c
80011820:	3b7b1000 	xori	k1,k1,0x1000
80011824:	17600004 	bnez	k1,80011838 <handle_tlb+0x38>
80011828:	00000000 	nop
8001182c:	3c1d8200 	lui	sp,0x8200
80011830:	08004613 	j	8001184c <handle_tlb+0x4c>
80011834:	00000000 	nop
80011838:	07a00004 	bltz	sp,8001184c <handle_tlb+0x4c>
8001183c:	00000000 	nop
80011840:	3c1d8002 	lui	sp,0x8002
80011844:	8fbd90c0 	lw	sp,-28480(sp)
	...
80011850:	03a0d821 	move	k1,sp
80011854:	277dff64 	addiu	sp,k1,-156
80011858:	afba0074 	sw	k0,116(sp)
8001185c:	afa20008 	sw	v0,8(sp)
80011860:	40026000 	mfc0	v0,$12
80011864:	afa20080 	sw	v0,128(sp)
80011868:	40026800 	mfc0	v0,$13
8001186c:	afa20090 	sw	v0,144(sp)
80011870:	40027000 	mfc0	v0,$14
80011874:	afa20094 	sw	v0,148(sp)
80011878:	40024000 	mfc0	v0,$8
8001187c:	afa2008c 	sw	v0,140(sp)
80011880:	00001010 	mfhi	v0
80011884:	afa20084 	sw	v0,132(sp)
80011888:	00001012 	mflo	v0
8001188c:	afa20088 	sw	v0,136(sp)
80011890:	afa00000 	sw	zero,0(sp)
80011894:	afa10004 	sw	at,4(sp)
80011898:	afa3000c 	sw	v1,12(sp)
8001189c:	afa40010 	sw	a0,16(sp)
800118a0:	afa50014 	sw	a1,20(sp)
800118a4:	afa60018 	sw	a2,24(sp)
800118a8:	afa7001c 	sw	a3,28(sp)
800118ac:	afa80020 	sw	t0,32(sp)
800118b0:	afa90024 	sw	t1,36(sp)
800118b4:	afaa0028 	sw	t2,40(sp)
800118b8:	afab002c 	sw	t3,44(sp)
800118bc:	afac0030 	sw	t4,48(sp)
800118c0:	afad0034 	sw	t5,52(sp)
800118c4:	afae0038 	sw	t6,56(sp)
800118c8:	afaf003c 	sw	t7,60(sp)
800118cc:	afb00040 	sw	s0,64(sp)
800118d0:	afb10044 	sw	s1,68(sp)
800118d4:	afb20048 	sw	s2,72(sp)
800118d8:	afb3004c 	sw	s3,76(sp)
800118dc:	afb40050 	sw	s4,80(sp)
800118e0:	afb50054 	sw	s5,84(sp)
800118e4:	afb60058 	sw	s6,88(sp)
800118e8:	afb7005c 	sw	s7,92(sp)
800118ec:	afb80060 	sw	t8,96(sp)
800118f0:	afb90064 	sw	t9,100(sp)
800118f4:	afba0068 	sw	k0,104(sp)
800118f8:	afbb006c 	sw	k1,108(sp)
800118fc:	afbc0070 	sw	gp,112(sp)
80011900:	afbe0078 	sw	s8,120(sp)
80011904:	afbf007c 	sw	ra,124(sp)
80011908:	40086000 	mfc0	t0,$12
8001190c:	3c091000 	lui	t1,0x1000
80011910:	35290001 	ori	t1,t1,0x1
80011914:	01094025 	or	t0,t0,t1
80011918:	39080001 	xori	t0,t0,0x1
8001191c:	40886000 	mtc0	t0,$12
80011920:	03a02021 	move	a0,sp
80011924:	0c004572 	jal	800115c8 <do_refill>
80011928:	00000000 	nop
8001192c:	080044e8 	j	800113a0 <ret_from_exception>
80011930:	00000000 	nop
	...

80011940 <handle_mod>:
80011940:	00000000 	nop
80011944:	401a6000 	mfc0	k0,$12
80011948:	001ad0c0 	sll	k0,k0,0x3
8001194c:	07400001 	bltz	k0,80011954 <handle_mod+0x14>
80011950:	00000000 	nop
80011954:	03a0d021 	move	k0,sp
80011958:	401b6800 	mfc0	k1,$13
8001195c:	337b107c 	andi	k1,k1,0x107c
80011960:	3b7b1000 	xori	k1,k1,0x1000
80011964:	17600004 	bnez	k1,80011978 <handle_mod+0x38>
80011968:	00000000 	nop
8001196c:	3c1d8200 	lui	sp,0x8200
80011970:	08004663 	j	8001198c <handle_mod+0x4c>
80011974:	00000000 	nop
80011978:	07a00004 	bltz	sp,8001198c <handle_mod+0x4c>
8001197c:	00000000 	nop
80011980:	3c1d8002 	lui	sp,0x8002
80011984:	8fbd90c0 	lw	sp,-28480(sp)
	...
80011990:	03a0d821 	move	k1,sp
80011994:	277dff64 	addiu	sp,k1,-156
80011998:	afba0074 	sw	k0,116(sp)
8001199c:	afa20008 	sw	v0,8(sp)
800119a0:	40026000 	mfc0	v0,$12
800119a4:	afa20080 	sw	v0,128(sp)
800119a8:	40026800 	mfc0	v0,$13
800119ac:	afa20090 	sw	v0,144(sp)
800119b0:	40027000 	mfc0	v0,$14
800119b4:	afa20094 	sw	v0,148(sp)
800119b8:	40024000 	mfc0	v0,$8
800119bc:	afa2008c 	sw	v0,140(sp)
800119c0:	00001010 	mfhi	v0
800119c4:	afa20084 	sw	v0,132(sp)
800119c8:	00001012 	mflo	v0
800119cc:	afa20088 	sw	v0,136(sp)
800119d0:	afa00000 	sw	zero,0(sp)
800119d4:	afa10004 	sw	at,4(sp)
800119d8:	afa3000c 	sw	v1,12(sp)
800119dc:	afa40010 	sw	a0,16(sp)
800119e0:	afa50014 	sw	a1,20(sp)
800119e4:	afa60018 	sw	a2,24(sp)
800119e8:	afa7001c 	sw	a3,28(sp)
800119ec:	afa80020 	sw	t0,32(sp)
800119f0:	afa90024 	sw	t1,36(sp)
800119f4:	afaa0028 	sw	t2,40(sp)
800119f8:	afab002c 	sw	t3,44(sp)
800119fc:	afac0030 	sw	t4,48(sp)
80011a00:	afad0034 	sw	t5,52(sp)
80011a04:	afae0038 	sw	t6,56(sp)
80011a08:	afaf003c 	sw	t7,60(sp)
80011a0c:	afb00040 	sw	s0,64(sp)
80011a10:	afb10044 	sw	s1,68(sp)
80011a14:	afb20048 	sw	s2,72(sp)
80011a18:	afb3004c 	sw	s3,76(sp)
80011a1c:	afb40050 	sw	s4,80(sp)
80011a20:	afb50054 	sw	s5,84(sp)
80011a24:	afb60058 	sw	s6,88(sp)
80011a28:	afb7005c 	sw	s7,92(sp)
80011a2c:	afb80060 	sw	t8,96(sp)
80011a30:	afb90064 	sw	t9,100(sp)
80011a34:	afba0068 	sw	k0,104(sp)
80011a38:	afbb006c 	sw	k1,108(sp)
80011a3c:	afbc0070 	sw	gp,112(sp)
80011a40:	afbe0078 	sw	s8,120(sp)
80011a44:	afbf007c 	sw	ra,124(sp)
80011a48:	40086000 	mfc0	t0,$12
80011a4c:	3c091000 	lui	t1,0x1000
80011a50:	35290001 	ori	t1,t1,0x1
80011a54:	01094025 	or	t0,t0,t1
80011a58:	39080001 	xori	t0,t0,0x1
80011a5c:	40886000 	mtc0	t0,$12
80011a60:	03a02021 	move	a0,sp
80011a64:	0c004d9e 	jal	80013678 <page_fault_handler>
80011a68:	00000000 	nop
80011a6c:	080044e8 	j	800113a0 <ret_from_exception>
80011a70:	00000000 	nop
	...

80011a80 <sys_cgetc>:
80011a80:	3c089000 	lui	t0,0x9000
80011a84:	81080000 	lb	t0,0(t0)
80011a88:	1100fffd 	beqz	t0,80011a80 <sys_cgetc>
80011a8c:	00000000 	nop
80011a90:	01001021 	move	v0,t0
80011a94:	03e00008 	jr	ra
80011a98:	00000000 	nop
80011a9c:	00000000 	nop

80011aa0 <kclock_init>:
80011aa0:	27bdffe8 	addiu	sp,sp,-24
80011aa4:	afbf0010 	sw	ra,16(sp)
80011aa8:	0c0046b0 	jal	80011ac0 <set_timer>
80011aac:	00000000 	nop
80011ab0:	8fbf0010 	lw	ra,16(sp)
80011ab4:	00000000 	nop
80011ab8:	03e00008 	jr	ra
80011abc:	27bd0018 	addiu	sp,sp,24

80011ac0 <set_timer>:
80011ac0:	24080001 	li	t0,1
80011ac4:	3c01b500 	lui	at,0xb500
80011ac8:	a0280100 	sb	t0,256(at)
80011acc:	3c018002 	lui	at,0x8002
80011ad0:	ac3d90c0 	sw	sp,-28480(at)
80011ad4:	40086000 	mfc0	t0,$12
80011ad8:	3c011000 	lui	at,0x1000
80011adc:	34211001 	ori	at,at,0x1001
80011ae0:	01014025 	or	t0,t0,at
80011ae4:	39080000 	xori	t0,t0,0x0
80011ae8:	40886000 	mtc0	t0,$12
80011aec:	03e00008 	jr	ra
80011af0:	00000000 	nop
	...

80011b00 <is_elf_format>:
80011b00:	8c820000 	lw	v0,0(a0)
80011b04:	3c03fffe 	lui	v1,0xfffe
80011b08:	3463fdfd 	ori	v1,v1,0xfdfd
80011b0c:	00431021 	addu	v0,v0,v1
80011b10:	03e00008 	jr	ra
80011b14:	0002102b 	sltu	v0,zero,v0

80011b18 <load_elf>:
80011b18:	27bdffc0 	addiu	sp,sp,-64
80011b1c:	afbf003c 	sw	ra,60(sp)
80011b20:	afbe0038 	sw	s8,56(sp)
80011b24:	afb70034 	sw	s7,52(sp)
80011b28:	afb60030 	sw	s6,48(sp)
80011b2c:	afb5002c 	sw	s5,44(sp)
80011b30:	afb40028 	sw	s4,40(sp)
80011b34:	afb30024 	sw	s3,36(sp)
80011b38:	afb20020 	sw	s2,32(sp)
80011b3c:	afb1001c 	sw	s1,28(sp)
80011b40:	afb00018 	sw	s0,24(sp)
80011b44:	00808821 	move	s1,a0
80011b48:	00c0a821 	move	s5,a2
80011b4c:	00e0a021 	move	s4,a3
80011b50:	8fb30050 	lw	s3,80(sp)
80011b54:	28a50004 	slti	a1,a1,4
80011b58:	14a00026 	bnez	a1,80011bf4 <load_elf+0xdc>
80011b5c:	00808021 	move	s0,a0
80011b60:	0c0046c0 	jal	80011b00 <is_elf_format>
80011b64:	00000000 	nop
80011b68:	10400023 	beqz	v0,80011bf8 <load_elf+0xe0>
80011b6c:	2402ffff 	li	v0,-1
80011b70:	8e22001c 	lw	v0,28(s1)
80011b74:	00000000 	nop
80011b78:	02229021 	addu	s2,s1,v0
80011b7c:	9622002c 	lhu	v0,44(s1)
80011b80:	963e002a 	lhu	s8,42(s1)
80011b84:	2442ffff 	addiu	v0,v0,-1
80011b88:	3043ffff 	andi	v1,v0,0xffff
80011b8c:	3402ffff 	li	v0,0xffff
80011b90:	10620013 	beq	v1,v0,80011be0 <load_elf+0xc8>
80011b94:	0000b021 	move	s6,zero
80011b98:	00031027 	nor	v0,zero,v1
80011b9c:	3057ffff 	andi	s7,v0,0xffff
80011ba0:	8e420000 	lw	v0,0(s2)
80011ba4:	24030001 	li	v1,1
80011ba8:	1443000a 	bne	v0,v1,80011bd4 <load_elf+0xbc>
80011bac:	26c2ffff 	addiu	v0,s6,-1
80011bb0:	8e440008 	lw	a0,8(s2)
80011bb4:	8e450014 	lw	a1,20(s2)
80011bb8:	8e460004 	lw	a2,4(s2)
80011bbc:	8e470010 	lw	a3,16(s2)
80011bc0:	afb40010 	sw	s4,16(sp)
80011bc4:	0260f809 	jalr	s3
80011bc8:	02263021 	addu	a2,s1,a2
80011bcc:	14400009 	bnez	v0,80011bf4 <load_elf+0xdc>
80011bd0:	26c2ffff 	addiu	v0,s6,-1
80011bd4:	3056ffff 	andi	s6,v0,0xffff
80011bd8:	16f6fff1 	bne	s7,s6,80011ba0 <load_elf+0x88>
80011bdc:	025e9021 	addu	s2,s2,s8
80011be0:	8e020018 	lw	v0,24(s0)
80011be4:	00000000 	nop
80011be8:	aea20000 	sw	v0,0(s5)
80011bec:	10000002 	b	80011bf8 <load_elf+0xe0>
80011bf0:	00001021 	move	v0,zero
80011bf4:	2402ffff 	li	v0,-1
80011bf8:	8fbf003c 	lw	ra,60(sp)
80011bfc:	8fbe0038 	lw	s8,56(sp)
80011c00:	8fb70034 	lw	s7,52(sp)
80011c04:	8fb60030 	lw	s6,48(sp)
80011c08:	8fb5002c 	lw	s5,44(sp)
80011c0c:	8fb40028 	lw	s4,40(sp)
80011c10:	8fb30024 	lw	s3,36(sp)
80011c14:	8fb20020 	lw	s2,32(sp)
80011c18:	8fb1001c 	lw	s1,28(sp)
80011c1c:	8fb00018 	lw	s0,24(sp)
80011c20:	03e00008 	jr	ra
80011c24:	27bd0040 	addiu	sp,sp,64
	...

80011c30 <lp_Print>:
80011c30:	27bdfbe0 	addiu	sp,sp,-1056
80011c34:	afbf041c 	sw	ra,1052(sp)
80011c38:	afb40418 	sw	s4,1048(sp)
80011c3c:	afb30414 	sw	s3,1044(sp)
80011c40:	afb20410 	sw	s2,1040(sp)
80011c44:	afb1040c 	sw	s1,1036(sp)
80011c48:	afb00408 	sw	s0,1032(sp)
80011c4c:	00809021 	move	s2,a0
80011c50:	00a08821 	move	s1,a1
80011c54:	00c08021 	move	s0,a2
80011c58:	00e09821 	move	s3,a3
80011c5c:	82030000 	lb	v1,0(s0)
80011c60:	24020025 	li	v0,37
80011c64:	14620142 	bne	v1,v0,80012170 <lp_Print+0x540>
80011c68:	00000000 	nop
80011c6c:	1000000c 	b	80011ca0 <lp_Print+0x70>
80011c70:	00000000 	nop
80011c74:	0240f809 	jalr	s2
80011c78:	24060001 	li	a2,1
80011c7c:	26100001 	addiu	s0,s0,1
80011c80:	82030000 	lb	v1,0(s0)
80011c84:	24020025 	li	v0,37
80011c88:	10620007 	beq	v1,v0,80011ca8 <lp_Print+0x78>
80011c8c:	00000000 	nop
80011c90:	1060012a 	beqz	v1,8001213c <lp_Print+0x50c>
80011c94:	02202021 	move	a0,s1
80011c98:	1000fff6 	b	80011c74 <lp_Print+0x44>
80011c9c:	02002821 	move	a1,s0
80011ca0:	10600126 	beqz	v1,8001213c <lp_Print+0x50c>
80011ca4:	00000000 	nop
80011ca8:	26100001 	addiu	s0,s0,1
80011cac:	00003821 	move	a3,zero
80011cb0:	24090020 	li	t1,32
80011cb4:	2403002d 	li	v1,45
80011cb8:	10000003 	b	80011cc8 <lp_Print+0x98>
80011cbc:	24040030 	li	a0,48
80011cc0:	24090030 	li	t1,48
80011cc4:	26100001 	addiu	s0,s0,1
80011cc8:	82020000 	lb	v0,0(s0)
80011ccc:	00000000 	nop
80011cd0:	14430003 	bne	v0,v1,80011ce0 <lp_Print+0xb0>
80011cd4:	00000000 	nop
80011cd8:	1000fffa 	b	80011cc4 <lp_Print+0x94>
80011cdc:	24070001 	li	a3,1
80011ce0:	1044fff7 	beq	v0,a0,80011cc0 <lp_Print+0x90>
80011ce4:	00000000 	nop
80011ce8:	10000125 	b	80012180 <lp_Print+0x550>
80011cec:	00000000 	nop
80011cf0:	00081040 	sll	v0,t0,0x1
80011cf4:	000818c0 	sll	v1,t0,0x3
80011cf8:	00431021 	addu	v0,v0,v1
80011cfc:	00461021 	addu	v0,v0,a2
80011d00:	2448ffd0 	addiu	t0,v0,-48
80011d04:	26100001 	addiu	s0,s0,1
80011d08:	82060000 	lb	a2,0(s0)
80011d0c:	00000000 	nop
80011d10:	24c2ffd0 	addiu	v0,a2,-48
80011d14:	304200ff 	andi	v0,v0,0xff
80011d18:	2c42000a 	sltiu	v0,v0,10
80011d1c:	1440fff5 	bnez	v0,80011cf4 <lp_Print+0xc4>
80011d20:	00081040 	sll	v0,t0,0x1
80011d24:	2402002e 	li	v0,46
80011d28:	14c20011 	bne	a2,v0,80011d70 <lp_Print+0x140>
80011d2c:	00000000 	nop
80011d30:	26100001 	addiu	s0,s0,1
80011d34:	92020000 	lbu	v0,0(s0)
80011d38:	00000000 	nop
80011d3c:	2442ffd0 	addiu	v0,v0,-48
80011d40:	304200ff 	andi	v0,v0,0xff
80011d44:	2c42000a 	sltiu	v0,v0,10
80011d48:	10400009 	beqz	v0,80011d70 <lp_Print+0x140>
80011d4c:	00000000 	nop
80011d50:	26100001 	addiu	s0,s0,1
80011d54:	92020000 	lbu	v0,0(s0)
80011d58:	00000000 	nop
80011d5c:	2442ffd0 	addiu	v0,v0,-48
80011d60:	304200ff 	andi	v0,v0,0xff
80011d64:	2c42000a 	sltiu	v0,v0,10
80011d68:	1440fff9 	bnez	v0,80011d50 <lp_Print+0x120>
80011d6c:	00000000 	nop
80011d70:	82030000 	lb	v1,0(s0)
80011d74:	2402006c 	li	v0,108
80011d78:	14620005 	bne	v1,v0,80011d90 <lp_Print+0x160>
80011d7c:	00002021 	move	a0,zero
80011d80:	26100001 	addiu	s0,s0,1
80011d84:	24040001 	li	a0,1
80011d88:	82030000 	lb	v1,0(s0)
80011d8c:	00000000 	nop
80011d90:	2c620079 	sltiu	v0,v1,121
80011d94:	104000e3 	beqz	v0,80012124 <lp_Print+0x4f4>
80011d98:	00031080 	sll	v0,v1,0x2
80011d9c:	3c038001 	lui	v1,0x8001
80011da0:	246363d0 	addiu	v1,v1,25552
80011da4:	00431021 	addu	v0,v0,v1
80011da8:	8c420000 	lw	v0,0(v0)
80011dac:	00000000 	nop
80011db0:	00400008 	jr	v0
80011db4:	00000000 	nop
80011db8:	10800004 	beqz	a0,80011dcc <lp_Print+0x19c>
80011dbc:	00000000 	nop
80011dc0:	8e650000 	lw	a1,0(s3)
80011dc4:	10000003 	b	80011dd4 <lp_Print+0x1a4>
80011dc8:	26730004 	addiu	s3,s3,4
80011dcc:	8e650000 	lw	a1,0(s3)
80011dd0:	26730004 	addiu	s3,s3,4
80011dd4:	afa80010 	sw	t0,16(sp)
80011dd8:	afa70014 	sw	a3,20(sp)
80011ddc:	afa90018 	sw	t1,24(sp)
80011de0:	afa0001c 	sw	zero,28(sp)
80011de4:	27a40020 	addiu	a0,sp,32
80011de8:	24060002 	li	a2,2
80011dec:	0c0048d0 	jal	80012340 <PrintNum>
80011df0:	00003821 	move	a3,zero
80011df4:	00403021 	move	a2,v0
80011df8:	2c4203e9 	sltiu	v0,v0,1001
80011dfc:	14400007 	bnez	v0,80011e1c <lp_Print+0x1ec>
80011e00:	02202021 	move	a0,s1
80011e04:	3c058001 	lui	a1,0x8001
80011e08:	24a563b0 	addiu	a1,a1,25520
80011e0c:	0240f809 	jalr	s2
80011e10:	24060018 	li	a2,24
80011e14:	1000ffff 	b	80011e14 <lp_Print+0x1e4>
80011e18:	00000000 	nop
80011e1c:	0240f809 	jalr	s2
80011e20:	27a50020 	addiu	a1,sp,32
80011e24:	1000ff8d 	b	80011c5c <lp_Print+0x2c>
80011e28:	26100001 	addiu	s0,s0,1
80011e2c:	10800004 	beqz	a0,80011e40 <lp_Print+0x210>
80011e30:	00000000 	nop
80011e34:	8e650000 	lw	a1,0(s3)
80011e38:	10000003 	b	80011e48 <lp_Print+0x218>
80011e3c:	26730004 	addiu	s3,s3,4
80011e40:	8e650000 	lw	a1,0(s3)
80011e44:	26730004 	addiu	s3,s3,4
80011e48:	04a10003 	bgez	a1,80011e58 <lp_Print+0x228>
80011e4c:	00001021 	move	v0,zero
80011e50:	00052823 	negu	a1,a1
80011e54:	24020001 	li	v0,1
80011e58:	afa80010 	sw	t0,16(sp)
80011e5c:	afa70014 	sw	a3,20(sp)
80011e60:	afa90018 	sw	t1,24(sp)
80011e64:	afa0001c 	sw	zero,28(sp)
80011e68:	27a40020 	addiu	a0,sp,32
80011e6c:	2406000a 	li	a2,10
80011e70:	0c0048d0 	jal	80012340 <PrintNum>
80011e74:	00403821 	move	a3,v0
80011e78:	00403021 	move	a2,v0
80011e7c:	2c4203e9 	sltiu	v0,v0,1001
80011e80:	14400007 	bnez	v0,80011ea0 <lp_Print+0x270>
80011e84:	02202021 	move	a0,s1
80011e88:	3c058001 	lui	a1,0x8001
80011e8c:	24a563b0 	addiu	a1,a1,25520
80011e90:	0240f809 	jalr	s2
80011e94:	24060018 	li	a2,24
80011e98:	1000ffff 	b	80011e98 <lp_Print+0x268>
80011e9c:	00000000 	nop
80011ea0:	0240f809 	jalr	s2
80011ea4:	27a50020 	addiu	a1,sp,32
80011ea8:	1000ff6c 	b	80011c5c <lp_Print+0x2c>
80011eac:	26100001 	addiu	s0,s0,1
80011eb0:	10800004 	beqz	a0,80011ec4 <lp_Print+0x294>
80011eb4:	00000000 	nop
80011eb8:	8e650000 	lw	a1,0(s3)
80011ebc:	10000003 	b	80011ecc <lp_Print+0x29c>
80011ec0:	26730004 	addiu	s3,s3,4
80011ec4:	8e650000 	lw	a1,0(s3)
80011ec8:	26730004 	addiu	s3,s3,4
80011ecc:	afa80010 	sw	t0,16(sp)
80011ed0:	afa70014 	sw	a3,20(sp)
80011ed4:	afa90018 	sw	t1,24(sp)
80011ed8:	afa0001c 	sw	zero,28(sp)
80011edc:	27a40020 	addiu	a0,sp,32
80011ee0:	24060008 	li	a2,8
80011ee4:	0c0048d0 	jal	80012340 <PrintNum>
80011ee8:	00003821 	move	a3,zero
80011eec:	00403021 	move	a2,v0
80011ef0:	2c4203e9 	sltiu	v0,v0,1001
80011ef4:	14400007 	bnez	v0,80011f14 <lp_Print+0x2e4>
80011ef8:	02202021 	move	a0,s1
80011efc:	3c058001 	lui	a1,0x8001
80011f00:	24a563b0 	addiu	a1,a1,25520
80011f04:	0240f809 	jalr	s2
80011f08:	24060018 	li	a2,24
80011f0c:	1000ffff 	b	80011f0c <lp_Print+0x2dc>
80011f10:	00000000 	nop
80011f14:	0240f809 	jalr	s2
80011f18:	27a50020 	addiu	a1,sp,32
80011f1c:	1000ff4f 	b	80011c5c <lp_Print+0x2c>
80011f20:	26100001 	addiu	s0,s0,1
80011f24:	10800004 	beqz	a0,80011f38 <lp_Print+0x308>
80011f28:	00000000 	nop
80011f2c:	8e650000 	lw	a1,0(s3)
80011f30:	10000003 	b	80011f40 <lp_Print+0x310>
80011f34:	26730004 	addiu	s3,s3,4
80011f38:	8e650000 	lw	a1,0(s3)
80011f3c:	26730004 	addiu	s3,s3,4
80011f40:	afa80010 	sw	t0,16(sp)
80011f44:	afa70014 	sw	a3,20(sp)
80011f48:	afa90018 	sw	t1,24(sp)
80011f4c:	afa0001c 	sw	zero,28(sp)
80011f50:	27a40020 	addiu	a0,sp,32
80011f54:	2406000a 	li	a2,10
80011f58:	0c0048d0 	jal	80012340 <PrintNum>
80011f5c:	00003821 	move	a3,zero
80011f60:	00403021 	move	a2,v0
80011f64:	2c4203e9 	sltiu	v0,v0,1001
80011f68:	14400007 	bnez	v0,80011f88 <lp_Print+0x358>
80011f6c:	02202021 	move	a0,s1
80011f70:	3c058001 	lui	a1,0x8001
80011f74:	24a563b0 	addiu	a1,a1,25520
80011f78:	0240f809 	jalr	s2
80011f7c:	24060018 	li	a2,24
80011f80:	1000ffff 	b	80011f80 <lp_Print+0x350>
80011f84:	00000000 	nop
80011f88:	0240f809 	jalr	s2
80011f8c:	27a50020 	addiu	a1,sp,32
80011f90:	1000ff32 	b	80011c5c <lp_Print+0x2c>
80011f94:	26100001 	addiu	s0,s0,1
80011f98:	10800004 	beqz	a0,80011fac <lp_Print+0x37c>
80011f9c:	00000000 	nop
80011fa0:	8e650000 	lw	a1,0(s3)
80011fa4:	10000003 	b	80011fb4 <lp_Print+0x384>
80011fa8:	26730004 	addiu	s3,s3,4
80011fac:	8e650000 	lw	a1,0(s3)
80011fb0:	26730004 	addiu	s3,s3,4
80011fb4:	afa80010 	sw	t0,16(sp)
80011fb8:	afa70014 	sw	a3,20(sp)
80011fbc:	afa90018 	sw	t1,24(sp)
80011fc0:	afa0001c 	sw	zero,28(sp)
80011fc4:	27a40020 	addiu	a0,sp,32
80011fc8:	24060010 	li	a2,16
80011fcc:	0c0048d0 	jal	80012340 <PrintNum>
80011fd0:	00003821 	move	a3,zero
80011fd4:	00403021 	move	a2,v0
80011fd8:	2c4203e9 	sltiu	v0,v0,1001
80011fdc:	14400007 	bnez	v0,80011ffc <lp_Print+0x3cc>
80011fe0:	02202021 	move	a0,s1
80011fe4:	3c058001 	lui	a1,0x8001
80011fe8:	24a563b0 	addiu	a1,a1,25520
80011fec:	0240f809 	jalr	s2
80011ff0:	24060018 	li	a2,24
80011ff4:	1000ffff 	b	80011ff4 <lp_Print+0x3c4>
80011ff8:	00000000 	nop
80011ffc:	0240f809 	jalr	s2
80012000:	27a50020 	addiu	a1,sp,32
80012004:	1000ff15 	b	80011c5c <lp_Print+0x2c>
80012008:	26100001 	addiu	s0,s0,1
8001200c:	10800004 	beqz	a0,80012020 <lp_Print+0x3f0>
80012010:	00000000 	nop
80012014:	8e650000 	lw	a1,0(s3)
80012018:	10000003 	b	80012028 <lp_Print+0x3f8>
8001201c:	26730004 	addiu	s3,s3,4
80012020:	8e650000 	lw	a1,0(s3)
80012024:	26730004 	addiu	s3,s3,4
80012028:	afa80010 	sw	t0,16(sp)
8001202c:	afa70014 	sw	a3,20(sp)
80012030:	afa90018 	sw	t1,24(sp)
80012034:	24020001 	li	v0,1
80012038:	afa2001c 	sw	v0,28(sp)
8001203c:	27a40020 	addiu	a0,sp,32
80012040:	24060010 	li	a2,16
80012044:	0c0048d0 	jal	80012340 <PrintNum>
80012048:	00003821 	move	a3,zero
8001204c:	00403021 	move	a2,v0
80012050:	2c4203e9 	sltiu	v0,v0,1001
80012054:	14400007 	bnez	v0,80012074 <lp_Print+0x444>
80012058:	02202021 	move	a0,s1
8001205c:	3c058001 	lui	a1,0x8001
80012060:	24a563b0 	addiu	a1,a1,25520
80012064:	0240f809 	jalr	s2
80012068:	24060018 	li	a2,24
8001206c:	1000ffff 	b	8001206c <lp_Print+0x43c>
80012070:	00000000 	nop
80012074:	0240f809 	jalr	s2
80012078:	27a50020 	addiu	a1,sp,32
8001207c:	1000fef7 	b	80011c5c <lp_Print+0x2c>
80012080:	26100001 	addiu	s0,s0,1
80012084:	26740004 	addiu	s4,s3,4
80012088:	27a40020 	addiu	a0,sp,32
8001208c:	82650003 	lb	a1,3(s3)
80012090:	0c004869 	jal	800121a4 <PrintChar>
80012094:	01003021 	move	a2,t0
80012098:	00403021 	move	a2,v0
8001209c:	2c4203e9 	sltiu	v0,v0,1001
800120a0:	14400007 	bnez	v0,800120c0 <lp_Print+0x490>
800120a4:	02202021 	move	a0,s1
800120a8:	3c058001 	lui	a1,0x8001
800120ac:	24a563b0 	addiu	a1,a1,25520
800120b0:	0240f809 	jalr	s2
800120b4:	24060018 	li	a2,24
800120b8:	1000ffff 	b	800120b8 <lp_Print+0x488>
800120bc:	00000000 	nop
800120c0:	0240f809 	jalr	s2
800120c4:	27a50020 	addiu	a1,sp,32
800120c8:	1000001a 	b	80012134 <lp_Print+0x504>
800120cc:	02809821 	move	s3,s4
800120d0:	26740004 	addiu	s4,s3,4
800120d4:	27a40020 	addiu	a0,sp,32
800120d8:	8e650000 	lw	a1,0(s3)
800120dc:	0c004888 	jal	80012220 <PrintString>
800120e0:	01003021 	move	a2,t0
800120e4:	00403021 	move	a2,v0
800120e8:	2c4203e9 	sltiu	v0,v0,1001
800120ec:	14400007 	bnez	v0,8001210c <lp_Print+0x4dc>
800120f0:	02202021 	move	a0,s1
800120f4:	3c058001 	lui	a1,0x8001
800120f8:	24a563b0 	addiu	a1,a1,25520
800120fc:	0240f809 	jalr	s2
80012100:	24060018 	li	a2,24
80012104:	1000ffff 	b	80012104 <lp_Print+0x4d4>
80012108:	00000000 	nop
8001210c:	0240f809 	jalr	s2
80012110:	27a50020 	addiu	a1,sp,32
80012114:	10000007 	b	80012134 <lp_Print+0x504>
80012118:	02809821 	move	s3,s4
8001211c:	10000005 	b	80012134 <lp_Print+0x504>
80012120:	2610ffff 	addiu	s0,s0,-1
80012124:	02202021 	move	a0,s1
80012128:	02002821 	move	a1,s0
8001212c:	0240f809 	jalr	s2
80012130:	24060001 	li	a2,1
80012134:	1000fec9 	b	80011c5c <lp_Print+0x2c>
80012138:	26100001 	addiu	s0,s0,1
8001213c:	02202021 	move	a0,s1
80012140:	3c058001 	lui	a1,0x8001
80012144:	24a563cc 	addiu	a1,a1,25548
80012148:	0240f809 	jalr	s2
8001214c:	24060001 	li	a2,1
80012150:	8fbf041c 	lw	ra,1052(sp)
80012154:	8fb40418 	lw	s4,1048(sp)
80012158:	8fb30414 	lw	s3,1044(sp)
8001215c:	8fb20410 	lw	s2,1040(sp)
80012160:	8fb1040c 	lw	s1,1036(sp)
80012164:	8fb00408 	lw	s0,1032(sp)
80012168:	03e00008 	jr	ra
8001216c:	27bd0420 	addiu	sp,sp,1056
80012170:	1060fff2 	beqz	v1,8001213c <lp_Print+0x50c>
80012174:	02202021 	move	a0,s1
80012178:	1000febe 	b	80011c74 <lp_Print+0x44>
8001217c:	02002821 	move	a1,s0
80012180:	82060000 	lb	a2,0(s0)
80012184:	00000000 	nop
80012188:	24c2ffd0 	addiu	v0,a2,-48
8001218c:	304200ff 	andi	v0,v0,0xff
80012190:	2c42000a 	sltiu	v0,v0,10
80012194:	1440fed6 	bnez	v0,80011cf0 <lp_Print+0xc0>
80012198:	00004021 	move	t0,zero
8001219c:	1000fee2 	b	80011d28 <lp_Print+0xf8>
800121a0:	2402002e 	li	v0,46

800121a4 <PrintChar>:
800121a4:	00052e00 	sll	a1,a1,0x18
800121a8:	1cc00002 	bgtz	a2,800121b4 <PrintChar+0x10>
800121ac:	00052e03 	sra	a1,a1,0x18
800121b0:	24060001 	li	a2,1
800121b4:	10e00014 	beqz	a3,80012208 <PrintChar+0x64>
800121b8:	28c20002 	slti	v0,a2,2
800121bc:	14400016 	bnez	v0,80012218 <PrintChar+0x74>
800121c0:	a0850000 	sb	a1,0(a0)
800121c4:	24030001 	li	v1,1
800121c8:	24050020 	li	a1,32
800121cc:	00831021 	addu	v0,a0,v1
800121d0:	24630001 	addiu	v1,v1,1
800121d4:	10c30010 	beq	a2,v1,80012218 <PrintChar+0x74>
800121d8:	a0450000 	sb	a1,0(v0)
800121dc:	1000fffc 	b	800121d0 <PrintChar+0x2c>
800121e0:	00831021 	addu	v0,a0,v1
800121e4:	00001821 	move	v1,zero
800121e8:	24080020 	li	t0,32
800121ec:	00641021 	addu	v0,v1,a0
800121f0:	24630001 	addiu	v1,v1,1
800121f4:	1467fffd 	bne	v1,a3,800121ec <PrintChar+0x48>
800121f8:	a0480000 	sb	t0,0(v0)
800121fc:	00c41021 	addu	v0,a2,a0
80012200:	10000005 	b	80012218 <PrintChar+0x74>
80012204:	a045ffff 	sb	a1,-1(v0)
80012208:	24c7ffff 	addiu	a3,a2,-1
8001220c:	1ce0fff5 	bgtz	a3,800121e4 <PrintChar+0x40>
80012210:	00c41021 	addu	v0,a2,a0
80012214:	a045ffff 	sb	a1,-1(v0)
80012218:	03e00008 	jr	ra
8001221c:	00c01021 	move	v0,a2

80012220 <PrintString>:
80012220:	80a20000 	lb	v0,0(a1)
80012224:	00000000 	nop
80012228:	14400003 	bnez	v0,80012238 <PrintString+0x18>
8001222c:	24a30001 	addiu	v1,a1,1
80012230:	10000007 	b	80012250 <PrintString+0x30>
80012234:	00004021 	move	t0,zero
80012238:	00004021 	move	t0,zero
8001223c:	25080001 	addiu	t0,t0,1
80012240:	80620000 	lb	v0,0(v1)
80012244:	00000000 	nop
80012248:	1440fffc 	bnez	v0,8001223c <PrintString+0x1c>
8001224c:	24630001 	addiu	v1,v1,1
80012250:	00c8102a 	slt	v0,a2,t0
80012254:	10400002 	beqz	v0,80012260 <PrintString+0x40>
80012258:	00000000 	nop
8001225c:	01003021 	move	a2,t0
80012260:	14e00031 	bnez	a3,80012328 <PrintString+0x108>
80012264:	00c83823 	subu	a3,a2,t0
80012268:	1000002b 	b	80012318 <PrintString+0xf8>
8001226c:	00000000 	nop
80012270:	00003821 	move	a3,zero
80012274:	00871021 	addu	v0,a0,a3
80012278:	00a71821 	addu	v1,a1,a3
8001227c:	90630000 	lbu	v1,0(v1)
80012280:	24e70001 	addiu	a3,a3,1
80012284:	1507fffb 	bne	t0,a3,80012274 <PrintString+0x54>
80012288:	a0430000 	sb	v1,0(v0)
8001228c:	0106102a 	slt	v0,t0,a2
80012290:	10400029 	beqz	v0,80012338 <PrintString+0x118>
80012294:	00001821 	move	v1,zero
80012298:	00881021 	addu	v0,a0,t0
8001229c:	24050020 	li	a1,32
800122a0:	00c82023 	subu	a0,a2,t0
800122a4:	a0450000 	sb	a1,0(v0)
800122a8:	24630001 	addiu	v1,v1,1
800122ac:	10640022 	beq	v1,a0,80012338 <PrintString+0x118>
800122b0:	24420001 	addiu	v0,v0,1
800122b4:	1000fffc 	b	800122a8 <PrintString+0x88>
800122b8:	a0450000 	sb	a1,0(v0)
800122bc:	00001821 	move	v1,zero
800122c0:	24090020 	li	t1,32
800122c4:	00831021 	addu	v0,a0,v1
800122c8:	24630001 	addiu	v1,v1,1
800122cc:	1467fffd 	bne	v1,a3,800122c4 <PrintString+0xa4>
800122d0:	a0490000 	sb	t1,0(v0)
800122d4:	00e6102a 	slt	v0,a3,a2
800122d8:	10400017 	beqz	v0,80012338 <PrintString+0x118>
800122dc:	00872021 	addu	a0,a0,a3
800122e0:	00e61023 	subu	v0,a3,a2
800122e4:	01021021 	addu	v0,t0,v0
800122e8:	00a21821 	addu	v1,a1,v0
800122ec:	00002821 	move	a1,zero
800122f0:	00c73823 	subu	a3,a2,a3
800122f4:	90620000 	lbu	v0,0(v1)
800122f8:	00000000 	nop
800122fc:	a0820000 	sb	v0,0(a0)
80012300:	24a50001 	addiu	a1,a1,1
80012304:	24630001 	addiu	v1,v1,1
80012308:	10a7000b 	beq	a1,a3,80012338 <PrintString+0x118>
8001230c:	24840001 	addiu	a0,a0,1
80012310:	1000fff8 	b	800122f4 <PrintString+0xd4>
80012314:	00000000 	nop
80012318:	1ce0ffe8 	bgtz	a3,800122bc <PrintString+0x9c>
8001231c:	00e6102a 	slt	v0,a3,a2
80012320:	1000ffed 	b	800122d8 <PrintString+0xb8>
80012324:	00000000 	nop
80012328:	1d00ffd1 	bgtz	t0,80012270 <PrintString+0x50>
8001232c:	0106102a 	slt	v0,t0,a2
80012330:	1000ffd7 	b	80012290 <PrintString+0x70>
80012334:	00000000 	nop
80012338:	03e00008 	jr	ra
8001233c:	00c01021 	move	v0,a2

80012340 <PrintNum>:
80012340:	8fa90010 	lw	t1,16(sp)
80012344:	8fac0014 	lw	t4,20(sp)
80012348:	8fab001c 	lw	t3,28(sp)
8001234c:	83aa001b 	lb	t2,27(sp)
80012350:	00804021 	move	t0,a0
80012354:	14c00002 	bnez	a2,80012360 <PrintNum+0x20>
80012358:	00a6001b 	divu	zero,a1,a2
8001235c:	0007000d 	break	0x7
80012360:	00001810 	mfhi	v1
80012364:	2862000a 	slti	v0,v1,10
80012368:	10400004 	beqz	v0,8001237c <PrintNum+0x3c>
8001236c:	24620030 	addiu	v0,v1,48
80012370:	a1020000 	sb	v0,0(t0)
80012374:	1000000c 	b	800123a8 <PrintNum+0x68>
80012378:	25080001 	addiu	t0,t0,1
8001237c:	11600005 	beqz	t3,80012394 <PrintNum+0x54>
80012380:	24620057 	addiu	v0,v1,87
80012384:	24620037 	addiu	v0,v1,55
80012388:	a1020000 	sb	v0,0(t0)
8001238c:	10000003 	b	8001239c <PrintNum+0x5c>
80012390:	25080001 	addiu	t0,t0,1
80012394:	a1020000 	sb	v0,0(t0)
80012398:	25080001 	addiu	t0,t0,1
8001239c:	14c00002 	bnez	a2,800123a8 <PrintNum+0x68>
800123a0:	00a6001b 	divu	zero,a1,a2
800123a4:	0007000d 	break	0x7
800123a8:	00002812 	mflo	a1
800123ac:	14a0ffe9 	bnez	a1,80012354 <PrintNum+0x14>
800123b0:	00000000 	nop
800123b4:	10e00005 	beqz	a3,800123cc <PrintNum+0x8c>
800123b8:	01043023 	subu	a2,t0,a0
800123bc:	2402002d 	li	v0,45
800123c0:	a1020000 	sb	v0,0(t0)
800123c4:	25080001 	addiu	t0,t0,1
800123c8:	01043023 	subu	a2,t0,a0
800123cc:	0126102a 	slt	v0,t1,a2
800123d0:	10400002 	beqz	v0,800123dc <PrintNum+0x9c>
800123d4:	00000000 	nop
800123d8:	00c04821 	move	t1,a2
800123dc:	11800002 	beqz	t4,800123e8 <PrintNum+0xa8>
800123e0:	00000000 	nop
800123e4:	240a0020 	li	t2,32
800123e8:	10e00033 	beqz	a3,800124b8 <PrintNum+0x178>
800123ec:	00c9102a 	slt	v0,a2,t1
800123f0:	15800031 	bnez	t4,800124b8 <PrintNum+0x178>
800123f4:	00000000 	nop
800123f8:	24020030 	li	v0,48
800123fc:	1542002e 	bne	t2,v0,800124b8 <PrintNum+0x178>
80012400:	00c9102a 	slt	v0,a2,t1
80012404:	24c6ffff 	addiu	a2,a2,-1
80012408:	2528ffff 	addiu	t0,t1,-1
8001240c:	00c8102a 	slt	v0,a2,t0
80012410:	10400008 	beqz	v0,80012434 <PrintNum+0xf4>
80012414:	01061023 	subu	v0,t0,a2
80012418:	00861821 	addu	v1,a0,a2
8001241c:	00002821 	move	a1,zero
80012420:	24070030 	li	a3,48
80012424:	a0670000 	sb	a3,0(v1)
80012428:	24a50001 	addiu	a1,a1,1
8001242c:	14a2fffd 	bne	a1,v0,80012424 <PrintNum+0xe4>
80012430:	24630001 	addiu	v1,v1,1
80012434:	00891821 	addu	v1,a0,t1
80012438:	2402002d 	li	v0,45
8001243c:	1000000d 	b	80012474 <PrintNum+0x134>
80012440:	a062ffff 	sb	v0,-1(v1)
80012444:	a0aa0000 	sb	t2,0(a1)
80012448:	24630001 	addiu	v1,v1,1
8001244c:	01261023 	subu	v0,t1,a2
80012450:	1462fffc 	bne	v1,v0,80012444 <PrintNum+0x104>
80012454:	24a50001 	addiu	a1,a1,1
80012458:	11800006 	beqz	t4,80012474 <PrintNum+0x134>
8001245c:	00000000 	nop
80012460:	24c6ffff 	addiu	a2,a2,-1
80012464:	1cc00005 	bgtz	a2,8001247c <PrintNum+0x13c>
80012468:	00003821 	move	a3,zero
8001246c:	03e00008 	jr	ra
80012470:	01201021 	move	v0,t1
80012474:	1000fffb 	b	80012464 <PrintNum+0x124>
80012478:	2526ffff 	addiu	a2,t1,-1
8001247c:	00802821 	move	a1,a0
80012480:	00862021 	addu	a0,a0,a2
80012484:	80a20000 	lb	v0,0(a1)
80012488:	90830000 	lbu	v1,0(a0)
8001248c:	00000000 	nop
80012490:	a0a30000 	sb	v1,0(a1)
80012494:	a0820000 	sb	v0,0(a0)
80012498:	24e70001 	addiu	a3,a3,1
8001249c:	24c6ffff 	addiu	a2,a2,-1
800124a0:	24a50001 	addiu	a1,a1,1
800124a4:	00e6102a 	slt	v0,a3,a2
800124a8:	10400008 	beqz	v0,800124cc <PrintNum+0x18c>
800124ac:	2484ffff 	addiu	a0,a0,-1
800124b0:	1000fff4 	b	80012484 <PrintNum+0x144>
800124b4:	00000000 	nop
800124b8:	1040ffe7 	beqz	v0,80012458 <PrintNum+0x118>
800124bc:	00000000 	nop
800124c0:	00862821 	addu	a1,a0,a2
800124c4:	1000ffdf 	b	80012444 <PrintNum+0x104>
800124c8:	00001821 	move	v1,zero
800124cc:	01201021 	move	v0,t1
800124d0:	03e00008 	jr	ra
800124d4:	00000000 	nop
	...

800124e0 <myoutput>:
800124e0:	27bdffe0 	addiu	sp,sp,-32
800124e4:	afbf001c 	sw	ra,28(sp)
800124e8:	afb20018 	sw	s2,24(sp)
800124ec:	afb10014 	sw	s1,20(sp)
800124f0:	afb00010 	sw	s0,16(sp)
800124f4:	24020001 	li	v0,1
800124f8:	14c20015 	bne	a2,v0,80012550 <myoutput+0x70>
800124fc:	00c09021 	move	s2,a2
80012500:	80a20000 	lb	v0,0(a1)
80012504:	00000000 	nop
80012508:	14400013 	bnez	v0,80012558 <myoutput+0x78>
8001250c:	00a08021 	move	s0,a1
80012510:	10000013 	b	80012560 <myoutput+0x80>
80012514:	00000000 	nop
80012518:	82040000 	lb	a0,0(s0)
8001251c:	0c004070 	jal	800101c0 <printcharc>
80012520:	00000000 	nop
80012524:	82030000 	lb	v1,0(s0)
80012528:	2402000a 	li	v0,10
8001252c:	14620003 	bne	v1,v0,8001253c <myoutput+0x5c>
80012530:	00000000 	nop
80012534:	0c004070 	jal	800101c0 <printcharc>
80012538:	2404000a 	li	a0,10
8001253c:	26310001 	addiu	s1,s1,1
80012540:	12510007 	beq	s2,s1,80012560 <myoutput+0x80>
80012544:	26100001 	addiu	s0,s0,1
80012548:	1000fff3 	b	80012518 <myoutput+0x38>
8001254c:	00000000 	nop
80012550:	18c00003 	blez	a2,80012560 <myoutput+0x80>
80012554:	00a08021 	move	s0,a1
80012558:	1000ffef 	b	80012518 <myoutput+0x38>
8001255c:	00008821 	move	s1,zero
80012560:	8fbf001c 	lw	ra,28(sp)
80012564:	8fb20018 	lw	s2,24(sp)
80012568:	8fb10014 	lw	s1,20(sp)
8001256c:	8fb00010 	lw	s0,16(sp)
80012570:	03e00008 	jr	ra
80012574:	27bd0020 	addiu	sp,sp,32

80012578 <printf>:
80012578:	27bdffe0 	addiu	sp,sp,-32
8001257c:	afbf0018 	sw	ra,24(sp)
80012580:	afa50024 	sw	a1,36(sp)
80012584:	afa60028 	sw	a2,40(sp)
80012588:	afa7002c 	sw	a3,44(sp)
8001258c:	00803021 	move	a2,a0
80012590:	27a70024 	addiu	a3,sp,36
80012594:	afa70010 	sw	a3,16(sp)
80012598:	3c048001 	lui	a0,0x8001
8001259c:	248424e0 	addiu	a0,a0,9440
800125a0:	0c00470c 	jal	80011c30 <lp_Print>
800125a4:	00002821 	move	a1,zero
800125a8:	8fbf0018 	lw	ra,24(sp)
800125ac:	00000000 	nop
800125b0:	03e00008 	jr	ra
800125b4:	27bd0020 	addiu	sp,sp,32

800125b8 <_panic>:
800125b8:	27bdffe0 	addiu	sp,sp,-32
800125bc:	afbf001c 	sw	ra,28(sp)
800125c0:	afb00018 	sw	s0,24(sp)
800125c4:	00801821 	move	v1,a0
800125c8:	00a04021 	move	t0,a1
800125cc:	afa7002c 	sw	a3,44(sp)
800125d0:	00c08021 	move	s0,a2
800125d4:	27a2002c 	addiu	v0,sp,44
800125d8:	afa20010 	sw	v0,16(sp)
800125dc:	3c048001 	lui	a0,0x8001
800125e0:	24845d60 	addiu	a0,a0,23904
800125e4:	00602821 	move	a1,v1
800125e8:	0c00495e 	jal	80012578 <printf>
800125ec:	01003021 	move	a2,t0
800125f0:	3c048001 	lui	a0,0x8001
800125f4:	248424e0 	addiu	a0,a0,9440
800125f8:	00002821 	move	a1,zero
800125fc:	8fa70010 	lw	a3,16(sp)
80012600:	0c00470c 	jal	80011c30 <lp_Print>
80012604:	02003021 	move	a2,s0
80012608:	3c048001 	lui	a0,0x8001
8001260c:	0c00495e 	jal	80012578 <printf>
80012610:	24845ad8 	addiu	a0,a0,23256
80012614:	1000ffff 	b	80012614 <_panic+0x5c>
80012618:	00000000 	nop
8001261c:	00000000 	nop

80012620 <sched_yield>:
80012620:	27bdffe0 	addiu	sp,sp,-32
80012624:	afbf001c 	sw	ra,28(sp)
80012628:	afb20018 	sw	s2,24(sp)
8001262c:	afb10014 	sw	s1,20(sp)
80012630:	afb00010 	sw	s0,16(sp)
80012634:	3c118001 	lui	s1,0x8001
80012638:	8e226630 	lw	v0,26160(s1)
8001263c:	00000000 	nop
80012640:	00021080 	sll	v0,v0,0x2
80012644:	3c038001 	lui	v1,0x8001
80012648:	24726720 	addiu	s2,v1,26400
8001264c:	00521021 	addu	v0,v0,s2
80012650:	8c500000 	lw	s0,0(v0)
80012654:	3c028001 	lui	v0,0x8001
80012658:	8c426634 	lw	v0,26164(v0)
8001265c:	00000000 	nop
80012660:	14400041 	bnez	v0,80012768 <sched_yield+0x148>
80012664:	00000000 	nop
80012668:	1600000c 	bnez	s0,8001269c <sched_yield+0x7c>
8001266c:	3c048001 	lui	a0,0x8001
80012670:	0c00495e 	jal	80012578 <printf>
80012674:	24845d74 	addiu	a0,a0,23924
80012678:	8e236630 	lw	v1,26160(s1)
8001267c:	24020001 	li	v0,1
80012680:	00431023 	subu	v0,v0,v1
80012684:	ae226630 	sw	v0,26160(s1)
80012688:	00021080 	sll	v0,v0,0x2
8001268c:	00521021 	addu	v0,v0,s2
80012690:	8c500000 	lw	s0,0(v0)
80012694:	10000034 	b	80012768 <sched_yield+0x148>
80012698:	00000000 	nop
8001269c:	3c048001 	lui	a0,0x8001
800126a0:	8e0500ac 	lw	a1,172(s0)
800126a4:	0c00495e 	jal	80012578 <printf>
800126a8:	24845d7c 	addiu	a0,a0,23932
800126ac:	8e0300b8 	lw	v1,184(s0)
800126b0:	00000000 	nop
800126b4:	10600004 	beqz	v1,800126c8 <sched_yield+0xa8>
800126b8:	00000000 	nop
800126bc:	8e0200bc 	lw	v0,188(s0)
800126c0:	00000000 	nop
800126c4:	ac6200bc 	sw	v0,188(v1)
800126c8:	8e0300bc 	lw	v1,188(s0)
800126cc:	8e0200b8 	lw	v0,184(s0)
800126d0:	00000000 	nop
800126d4:	ac620000 	sw	v0,0(v1)
800126d8:	3c028001 	lui	v0,0x8001
800126dc:	8c456630 	lw	a1,26160(v0)
800126e0:	24030001 	li	v1,1
800126e4:	00651823 	subu	v1,v1,a1
800126e8:	00031880 	sll	v1,v1,0x2
800126ec:	3c028001 	lui	v0,0x8001
800126f0:	24426720 	addiu	v0,v0,26400
800126f4:	00621821 	addu	v1,v1,v0
800126f8:	8c640000 	lw	a0,0(v1)
800126fc:	00000000 	nop
80012700:	14800006 	bnez	a0,8001271c <sched_yield+0xfc>
80012704:	00000000 	nop
80012708:	ae0000b8 	sw	zero,184(s0)
8001270c:	ac700000 	sw	s0,0(v1)
80012710:	1000000f 	b	80012750 <sched_yield+0x130>
80012714:	ae0300bc 	sw	v1,188(s0)
80012718:	00402021 	move	a0,v0
8001271c:	8c8200b8 	lw	v0,184(a0)
80012720:	00000000 	nop
80012724:	1440fffc 	bnez	v0,80012718 <sched_yield+0xf8>
80012728:	00000000 	nop
8001272c:	ae0000b8 	sw	zero,184(s0)
80012730:	8c8300b8 	lw	v1,184(a0)
80012734:	00000000 	nop
80012738:	10600002 	beqz	v1,80012744 <sched_yield+0x124>
8001273c:	260200b8 	addiu	v0,s0,184
80012740:	ac6200bc 	sw	v0,188(v1)
80012744:	ac9000b8 	sw	s0,184(a0)
80012748:	248200b8 	addiu	v0,a0,184
8001274c:	ae0200bc 	sw	v0,188(s0)
80012750:	00051880 	sll	v1,a1,0x2
80012754:	3c028001 	lui	v0,0x8001
80012758:	24426720 	addiu	v0,v0,26400
8001275c:	00621821 	addu	v1,v1,v0
80012760:	8c700000 	lw	s0,0(v1)
80012764:	00000000 	nop
80012768:	16000019 	bnez	s0,800127d0 <sched_yield+0x1b0>
8001276c:	3c038001 	lui	v1,0x8001
80012770:	3c108001 	lui	s0,0x8001
80012774:	8e036630 	lw	v1,26160(s0)
80012778:	24020001 	li	v0,1
8001277c:	00431023 	subu	v0,v0,v1
80012780:	ae026630 	sw	v0,26160(s0)
80012784:	3c048001 	lui	a0,0x8001
80012788:	0c00495e 	jal	80012578 <printf>
8001278c:	24845d88 	addiu	a0,a0,23944
80012790:	8e036630 	lw	v1,26160(s0)
80012794:	00000000 	nop
80012798:	00031880 	sll	v1,v1,0x2
8001279c:	3c028001 	lui	v0,0x8001
800127a0:	24426720 	addiu	v0,v0,26400
800127a4:	00621821 	addu	v1,v1,v0
800127a8:	8c700000 	lw	s0,0(v1)
800127ac:	00000000 	nop
800127b0:	16000007 	bnez	s0,800127d0 <sched_yield+0x1b0>
800127b4:	3c038001 	lui	v1,0x8001
800127b8:	3c048001 	lui	a0,0x8001
800127bc:	24845d90 	addiu	a0,a0,23952
800127c0:	24050049 	li	a1,73
800127c4:	3c068001 	lui	a2,0x8001
800127c8:	0c00496e 	jal	800125b8 <_panic>
800127cc:	24c65d98 	addiu	a2,a2,23960
800127d0:	8c626634 	lw	v0,26164(v1)
800127d4:	00000000 	nop
800127d8:	14400004 	bnez	v0,800127ec <sched_yield+0x1cc>
800127dc:	00000000 	nop
800127e0:	8e0200c8 	lw	v0,200(s0)
800127e4:	00000000 	nop
800127e8:	ac626634 	sw	v0,26164(v1)
800127ec:	3c038001 	lui	v1,0x8001
800127f0:	8c626634 	lw	v0,26164(v1)
800127f4:	00000000 	nop
800127f8:	2442ffff 	addiu	v0,v0,-1
800127fc:	ac626634 	sw	v0,26164(v1)
80012800:	0c004349 	jal	80010d24 <env_run>
80012804:	02002021 	move	a0,s0
80012808:	8fbf001c 	lw	ra,28(sp)
8001280c:	8fb20018 	lw	s2,24(sp)
80012810:	8fb10014 	lw	s1,20(sp)
80012814:	8fb00010 	lw	s0,16(sp)
80012818:	03e00008 	jr	ra
8001281c:	27bd0020 	addiu	sp,sp,32

80012820 <handle_sys>:
80012820:	401a6000 	mfc0	k0,$12
80012824:	001ad0c0 	sll	k0,k0,0x3
80012828:	07400001 	bltz	k0,80012830 <handle_sys+0x10>
8001282c:	00000000 	nop
80012830:	03a0d021 	move	k0,sp
80012834:	401b6800 	mfc0	k1,$13
80012838:	337b107c 	andi	k1,k1,0x107c
8001283c:	3b7b1000 	xori	k1,k1,0x1000
80012840:	17600004 	bnez	k1,80012854 <handle_sys+0x34>
80012844:	00000000 	nop
80012848:	3c1d8200 	lui	sp,0x8200
8001284c:	08004a1a 	j	80012868 <handle_sys+0x48>
80012850:	00000000 	nop
80012854:	07a00004 	bltz	sp,80012868 <handle_sys+0x48>
80012858:	00000000 	nop
8001285c:	3c1d8002 	lui	sp,0x8002
80012860:	8fbd90c0 	lw	sp,-28480(sp)
	...
8001286c:	03a0d821 	move	k1,sp
80012870:	277dff64 	addiu	sp,k1,-156
80012874:	afba0074 	sw	k0,116(sp)
80012878:	afa20008 	sw	v0,8(sp)
8001287c:	40026000 	mfc0	v0,$12
80012880:	afa20080 	sw	v0,128(sp)
80012884:	40026800 	mfc0	v0,$13
80012888:	afa20090 	sw	v0,144(sp)
8001288c:	40027000 	mfc0	v0,$14
80012890:	afa20094 	sw	v0,148(sp)
80012894:	40024000 	mfc0	v0,$8
80012898:	afa2008c 	sw	v0,140(sp)
8001289c:	00001010 	mfhi	v0
800128a0:	afa20084 	sw	v0,132(sp)
800128a4:	00001012 	mflo	v0
800128a8:	afa20088 	sw	v0,136(sp)
800128ac:	afa00000 	sw	zero,0(sp)
800128b0:	afa10004 	sw	at,4(sp)
800128b4:	afa3000c 	sw	v1,12(sp)
800128b8:	afa40010 	sw	a0,16(sp)
800128bc:	afa50014 	sw	a1,20(sp)
800128c0:	afa60018 	sw	a2,24(sp)
800128c4:	afa7001c 	sw	a3,28(sp)
800128c8:	afa80020 	sw	t0,32(sp)
800128cc:	afa90024 	sw	t1,36(sp)
800128d0:	afaa0028 	sw	t2,40(sp)
800128d4:	afab002c 	sw	t3,44(sp)
800128d8:	afac0030 	sw	t4,48(sp)
800128dc:	afad0034 	sw	t5,52(sp)
800128e0:	afae0038 	sw	t6,56(sp)
800128e4:	afaf003c 	sw	t7,60(sp)
800128e8:	afb00040 	sw	s0,64(sp)
800128ec:	afb10044 	sw	s1,68(sp)
800128f0:	afb20048 	sw	s2,72(sp)
800128f4:	afb3004c 	sw	s3,76(sp)
800128f8:	afb40050 	sw	s4,80(sp)
800128fc:	afb50054 	sw	s5,84(sp)
80012900:	afb60058 	sw	s6,88(sp)
80012904:	afb7005c 	sw	s7,92(sp)
80012908:	afb80060 	sw	t8,96(sp)
8001290c:	afb90064 	sw	t9,100(sp)
80012910:	afba0068 	sw	k0,104(sp)
80012914:	afbb006c 	sw	k1,108(sp)
80012918:	afbc0070 	sw	gp,112(sp)
8001291c:	afbe0078 	sw	s8,120(sp)
80012920:	afbf007c 	sw	ra,124(sp)
80012924:	40086000 	mfc0	t0,$12
80012928:	3c091000 	lui	t1,0x1000
8001292c:	35290001 	ori	t1,t1,0x1
80012930:	01094025 	or	t0,t0,t1
80012934:	39080001 	xori	t0,t0,0x1
80012938:	40886000 	mtc0	t0,$12
8001293c:	00000000 	nop
80012940:	8fa80094 	lw	t0,148(sp)
80012944:	21080004 	addi	t0,t0,4
80012948:	afa80094 	sw	t0,148(sp)
8001294c:	8fa40010 	lw	a0,16(sp)
80012950:	2484dac9 	addiu	a0,a0,-9527
80012954:	00044080 	sll	t0,a0,0x2
80012958:	3c098001 	lui	t1,0x8001
8001295c:	252929a8 	addiu	t1,t1,10664
80012960:	01284821 	addu	t1,t1,t0
80012964:	8d2a0000 	lw	t2,0(t1)
80012968:	8fa80074 	lw	t0,116(sp)
8001296c:	8d0b0010 	lw	t3,16(t0)
80012970:	8d0c0014 	lw	t4,20(t0)
80012974:	8fa40010 	lw	a0,16(sp)
80012978:	8fa50014 	lw	a1,20(sp)
8001297c:	8fa60018 	lw	a2,24(sp)
80012980:	8fa7001c 	lw	a3,28(sp)
80012984:	27bdffe8 	addiu	sp,sp,-24
80012988:	afab0010 	sw	t3,16(sp)
8001298c:	afac0014 	sw	t4,20(sp)
80012990:	0140f809 	jalr	t2
80012994:	00000000 	nop
80012998:	27bd0018 	addiu	sp,sp,24
8001299c:	afa20008 	sw	v0,8(sp)
800129a0:	080044e8 	j	800113a0 <ret_from_exception>
800129a4:	00000000 	nop

800129a8 <sys_call_table>:
800129a8:	80012a00 	lb	at,10752(zero)
800129ac:	80012a58 	lb	at,10840(zero)
800129b0:	80012a70 	lb	at,10864(zero)
800129b4:	80012ab0 	lb	at,10928(zero)
800129b8:	80012b14 	lb	at,11028(zero)
800129bc:	80012b74 	lb	at,11124(zero)
800129c0:	80012c1c 	lb	at,11292(zero)
800129c4:	80012d08 	lb	at,11528(zero)
800129c8:	80012d70 	lb	at,11632(zero)
800129cc:	80012e1c 	lb	at,11804(zero)
800129d0:	80012f60 	lb	at,12128(zero)
800129d4:	80012f68 	lb	at,12136(zero)
800129d8:	80012fe4 	lb	at,12260(zero)
800129dc:	80012f9c 	lb	at,12188(zero)
800129e0:	80011a80 	lb	at,6784(zero)
800129e4:	800130f0 	lb	at,12528(zero)
800129e8:	800131b4 	lb	at,12724(zero)
800129ec:	80013270 	lb	at,12912(zero)
800129f0:	800132d0 	lb	at,13008(zero)
800129f4:	8001340c 	lb	at,13324(zero)
800129f8:	800134fc 	lb	at,13564(zero)
800129fc:	80013530 	lb	at,13616(zero)

80012a00 <sys_putchar>:
80012a00:	27bdffe8 	addiu	sp,sp,-24
80012a04:	afbf0010 	sw	ra,16(sp)
80012a08:	00052600 	sll	a0,a1,0x18
80012a0c:	0c004070 	jal	800101c0 <printcharc>
80012a10:	00042603 	sra	a0,a0,0x18
80012a14:	8fbf0010 	lw	ra,16(sp)
80012a18:	00000000 	nop
80012a1c:	03e00008 	jr	ra
80012a20:	27bd0018 	addiu	sp,sp,24

80012a24 <memcpy>:
80012a24:	10c0000a 	beqz	a2,80012a50 <memcpy+0x2c>
80012a28:	24c2ffff 	addiu	v0,a2,-1
80012a2c:	00801821 	move	v1,a0
80012a30:	00821021 	addu	v0,a0,v0
80012a34:	24460001 	addiu	a2,v0,1
80012a38:	90a20000 	lbu	v0,0(a1)
80012a3c:	00000000 	nop
80012a40:	a0620000 	sb	v0,0(v1)
80012a44:	24630001 	addiu	v1,v1,1
80012a48:	1466fffb 	bne	v1,a2,80012a38 <memcpy+0x14>
80012a4c:	24a50001 	addiu	a1,a1,1
80012a50:	03e00008 	jr	ra
80012a54:	00801021 	move	v0,a0

80012a58 <sys_getenvid>:
80012a58:	3c028001 	lui	v0,0x8001
80012a5c:	8c426624 	lw	v0,26148(v0)
80012a60:	00000000 	nop
80012a64:	8c4200a4 	lw	v0,164(v0)
80012a68:	03e00008 	jr	ra
80012a6c:	00000000 	nop

80012a70 <sys_yield>:
80012a70:	27bdffe8 	addiu	sp,sp,-24
80012a74:	afbf0010 	sw	ra,16(sp)
80012a78:	3c028002 	lui	v0,0x8002
80012a7c:	8c4490c0 	lw	a0,-28480(v0)
80012a80:	00000000 	nop
80012a84:	2484ff64 	addiu	a0,a0,-156
80012a88:	3c0581ff 	lui	a1,0x81ff
80012a8c:	34a5ff64 	ori	a1,a1,0xff64
80012a90:	0c004040 	jal	80010100 <bcopy>
80012a94:	2406009c 	li	a2,156
80012a98:	0c004988 	jal	80012620 <sched_yield>
80012a9c:	00000000 	nop
80012aa0:	8fbf0010 	lw	ra,16(sp)
80012aa4:	00000000 	nop
80012aa8:	03e00008 	jr	ra
80012aac:	27bd0018 	addiu	sp,sp,24

80012ab0 <sys_env_destroy>:
80012ab0:	27bdffe0 	addiu	sp,sp,-32
80012ab4:	afbf0018 	sw	ra,24(sp)
80012ab8:	00a02021 	move	a0,a1
80012abc:	27a50010 	addiu	a1,sp,16
80012ac0:	0c0040a0 	jal	80010280 <envid2env>
80012ac4:	24060001 	li	a2,1
80012ac8:	0440000e 	bltz	v0,80012b04 <sys_env_destroy+0x54>
80012acc:	3c048001 	lui	a0,0x8001
80012ad0:	3c028001 	lui	v0,0x8001
80012ad4:	8c426624 	lw	v0,26148(v0)
80012ad8:	00000000 	nop
80012adc:	8c4500a4 	lw	a1,164(v0)
80012ae0:	8fa20010 	lw	v0,16(sp)
80012ae4:	00000000 	nop
80012ae8:	8c4600a4 	lw	a2,164(v0)
80012aec:	0c00495e 	jal	80012578 <printf>
80012af0:	24845dac 	addiu	a0,a0,23980
80012af4:	8fa40010 	lw	a0,16(sp)
80012af8:	0c00432e 	jal	80010cb8 <env_destroy>
80012afc:	00000000 	nop
80012b00:	00001021 	move	v0,zero
80012b04:	8fbf0018 	lw	ra,24(sp)
80012b08:	00000000 	nop
80012b0c:	03e00008 	jr	ra
80012b10:	27bd0020 	addiu	sp,sp,32

80012b14 <sys_set_pgfault_handler>:
80012b14:	27bdffd8 	addiu	sp,sp,-40
80012b18:	afbf0020 	sw	ra,32(sp)
80012b1c:	afb1001c 	sw	s1,28(sp)
80012b20:	afb00018 	sw	s0,24(sp)
80012b24:	00c08021 	move	s0,a2
80012b28:	00e08821 	move	s1,a3
80012b2c:	00a02021 	move	a0,a1
80012b30:	27a50010 	addiu	a1,sp,16
80012b34:	0c0040a0 	jal	80010280 <envid2env>
80012b38:	00003021 	move	a2,zero
80012b3c:	04400008 	bltz	v0,80012b60 <sys_set_pgfault_handler+0x4c>
80012b40:	00000000 	nop
80012b44:	8fa20010 	lw	v0,16(sp)
80012b48:	00000000 	nop
80012b4c:	ac5000e0 	sw	s0,224(v0)
80012b50:	8fa20010 	lw	v0,16(sp)
80012b54:	00000000 	nop
80012b58:	ac5100e4 	sw	s1,228(v0)
80012b5c:	00001021 	move	v0,zero
80012b60:	8fbf0020 	lw	ra,32(sp)
80012b64:	8fb1001c 	lw	s1,28(sp)
80012b68:	8fb00018 	lw	s0,24(sp)
80012b6c:	03e00008 	jr	ra
80012b70:	27bd0028 	addiu	sp,sp,40

80012b74 <sys_mem_alloc>:
80012b74:	27bdffd8 	addiu	sp,sp,-40
80012b78:	afbf0020 	sw	ra,32(sp)
80012b7c:	afb1001c 	sw	s1,28(sp)
80012b80:	afb00018 	sw	s0,24(sp)
80012b84:	00a02021 	move	a0,a1
80012b88:	00c08821 	move	s1,a2
80012b8c:	30e20001 	andi	v0,a3,0x1
80012b90:	1440001c 	bnez	v0,80012c04 <sys_mem_alloc+0x90>
80012b94:	00e08021 	move	s0,a3
80012b98:	30e20200 	andi	v0,a3,0x200
80012b9c:	1040001a 	beqz	v0,80012c08 <sys_mem_alloc+0x94>
80012ba0:	2402fffd 	li	v0,-3
80012ba4:	3c027f3f 	lui	v0,0x7f3f
80012ba8:	3442ffff 	ori	v0,v0,0xffff
80012bac:	0046102b 	sltu	v0,v0,a2
80012bb0:	14400015 	bnez	v0,80012c08 <sys_mem_alloc+0x94>
80012bb4:	2402fffd 	li	v0,-3
80012bb8:	27a50010 	addiu	a1,sp,16
80012bbc:	0c0040a0 	jal	80010280 <envid2env>
80012bc0:	00003021 	move	a2,zero
80012bc4:	04400010 	bltz	v0,80012c08 <sys_mem_alloc+0x94>
80012bc8:	00000000 	nop
80012bcc:	0c004f51 	jal	80013d44 <page_alloc>
80012bd0:	27a40014 	addiu	a0,sp,20
80012bd4:	0440000c 	bltz	v0,80012c08 <sys_mem_alloc+0x94>
80012bd8:	02203021 	move	a2,s1
80012bdc:	8fa20010 	lw	v0,16(sp)
80012be0:	00000000 	nop
80012be4:	8c4400b0 	lw	a0,176(v0)
80012be8:	8fa50014 	lw	a1,20(sp)
80012bec:	0c004fe9 	jal	80013fa4 <page_insert>
80012bf0:	02003821 	move	a3,s0
80012bf4:	04400004 	bltz	v0,80012c08 <sys_mem_alloc+0x94>
80012bf8:	00000000 	nop
80012bfc:	10000002 	b	80012c08 <sys_mem_alloc+0x94>
80012c00:	00001021 	move	v0,zero
80012c04:	2402fffd 	li	v0,-3
80012c08:	8fbf0020 	lw	ra,32(sp)
80012c0c:	8fb1001c 	lw	s1,28(sp)
80012c10:	8fb00018 	lw	s0,24(sp)
80012c14:	03e00008 	jr	ra
80012c18:	27bd0028 	addiu	sp,sp,40

80012c1c <sys_mem_map>:
80012c1c:	27bdffc8 	addiu	sp,sp,-56
80012c20:	afbf0030 	sw	ra,48(sp)
80012c24:	afb3002c 	sw	s3,44(sp)
80012c28:	afb20028 	sw	s2,40(sp)
80012c2c:	afb10024 	sw	s1,36(sp)
80012c30:	afb00020 	sw	s0,32(sp)
80012c34:	00a02021 	move	a0,a1
80012c38:	00e09821 	move	s3,a3
80012c3c:	8fa30048 	lw	v1,72(sp)
80012c40:	8fb2004c 	lw	s2,76(sp)
80012c44:	2402f000 	li	v0,-4096
80012c48:	00c28024 	and	s0,a2,v0
80012c4c:	00628824 	and	s1,v1,v0
80012c50:	32420200 	andi	v0,s2,0x200
80012c54:	10400024 	beqz	v0,80012ce8 <sys_mem_map+0xcc>
80012c58:	afa00018 	sw	zero,24(sp)
80012c5c:	3c027f3f 	lui	v0,0x7f3f
80012c60:	3445ffff 	ori	a1,v0,0xffff
80012c64:	00a6102b 	sltu	v0,a1,a2
80012c68:	14400020 	bnez	v0,80012cec <sys_mem_map+0xd0>
80012c6c:	2402fffd 	li	v0,-3
80012c70:	00a3102b 	sltu	v0,a1,v1
80012c74:	1440001d 	bnez	v0,80012cec <sys_mem_map+0xd0>
80012c78:	2402fffd 	li	v0,-3
80012c7c:	27a50010 	addiu	a1,sp,16
80012c80:	0c0040a0 	jal	80010280 <envid2env>
80012c84:	00003021 	move	a2,zero
80012c88:	04400018 	bltz	v0,80012cec <sys_mem_map+0xd0>
80012c8c:	02602021 	move	a0,s3
80012c90:	27a50014 	addiu	a1,sp,20
80012c94:	0c0040a0 	jal	80010280 <envid2env>
80012c98:	00003021 	move	a2,zero
80012c9c:	04400013 	bltz	v0,80012cec <sys_mem_map+0xd0>
80012ca0:	02002821 	move	a1,s0
80012ca4:	8fa20010 	lw	v0,16(sp)
80012ca8:	00000000 	nop
80012cac:	8c4400b0 	lw	a0,176(v0)
80012cb0:	0c005057 	jal	8001415c <page_lookup>
80012cb4:	27a60018 	addiu	a2,sp,24
80012cb8:	1040000b 	beqz	v0,80012ce8 <sys_mem_map+0xcc>
80012cbc:	00402821 	move	a1,v0
80012cc0:	8fa20014 	lw	v0,20(sp)
80012cc4:	00000000 	nop
80012cc8:	8c4400b0 	lw	a0,176(v0)
80012ccc:	02203021 	move	a2,s1
80012cd0:	0c004fe9 	jal	80013fa4 <page_insert>
80012cd4:	02403821 	move	a3,s2
80012cd8:	04400004 	bltz	v0,80012cec <sys_mem_map+0xd0>
80012cdc:	00000000 	nop
80012ce0:	10000002 	b	80012cec <sys_mem_map+0xd0>
80012ce4:	00001021 	move	v0,zero
80012ce8:	2402fffd 	li	v0,-3
80012cec:	8fbf0030 	lw	ra,48(sp)
80012cf0:	8fb3002c 	lw	s3,44(sp)
80012cf4:	8fb20028 	lw	s2,40(sp)
80012cf8:	8fb10024 	lw	s1,36(sp)
80012cfc:	8fb00020 	lw	s0,32(sp)
80012d00:	03e00008 	jr	ra
80012d04:	27bd0038 	addiu	sp,sp,56

80012d08 <sys_mem_unmap>:
80012d08:	27bdffe0 	addiu	sp,sp,-32
80012d0c:	afbf001c 	sw	ra,28(sp)
80012d10:	afb00018 	sw	s0,24(sp)
80012d14:	00a02021 	move	a0,a1
80012d18:	3c027f3f 	lui	v0,0x7f3f
80012d1c:	3442ffff 	ori	v0,v0,0xffff
80012d20:	0046102b 	sltu	v0,v0,a2
80012d24:	10400003 	beqz	v0,80012d34 <sys_mem_unmap+0x2c>
80012d28:	00c08021 	move	s0,a2
80012d2c:	1000000c 	b	80012d60 <sys_mem_unmap+0x58>
80012d30:	2402fffd 	li	v0,-3
80012d34:	27a50010 	addiu	a1,sp,16
80012d38:	0c0040a0 	jal	80010280 <envid2env>
80012d3c:	00003021 	move	a2,zero
80012d40:	04400007 	bltz	v0,80012d60 <sys_mem_unmap+0x58>
80012d44:	00000000 	nop
80012d48:	8fa20010 	lw	v0,16(sp)
80012d4c:	00000000 	nop
80012d50:	8c4400b0 	lw	a0,176(v0)
80012d54:	0c00508e 	jal	80014238 <page_remove>
80012d58:	02002821 	move	a1,s0
80012d5c:	00001021 	move	v0,zero
80012d60:	8fbf001c 	lw	ra,28(sp)
80012d64:	8fb00018 	lw	s0,24(sp)
80012d68:	03e00008 	jr	ra
80012d6c:	27bd0020 	addiu	sp,sp,32

80012d70 <sys_env_alloc>:
80012d70:	27bdffe0 	addiu	sp,sp,-32
80012d74:	afbf001c 	sw	ra,28(sp)
80012d78:	afb00018 	sw	s0,24(sp)
80012d7c:	3c108001 	lui	s0,0x8001
80012d80:	8e026624 	lw	v0,26148(s0)
80012d84:	00000000 	nop
80012d88:	8c4500a4 	lw	a1,164(v0)
80012d8c:	0c004167 	jal	8001059c <env_alloc>
80012d90:	27a40010 	addiu	a0,sp,16
80012d94:	0440001d 	bltz	v0,80012e0c <sys_env_alloc+0x9c>
80012d98:	00000000 	nop
80012d9c:	3c028002 	lui	v0,0x8002
80012da0:	8c4490c0 	lw	a0,-28480(v0)
80012da4:	00000000 	nop
80012da8:	2484ff64 	addiu	a0,a0,-156
80012dac:	8fa50010 	lw	a1,16(sp)
80012db0:	0c004040 	jal	80010100 <bcopy>
80012db4:	2406009c 	li	a2,156
80012db8:	24030002 	li	v1,2
80012dbc:	8fa20010 	lw	v0,16(sp)
80012dc0:	00000000 	nop
80012dc4:	ac4300ac 	sw	v1,172(v0)
80012dc8:	8fa30010 	lw	v1,16(sp)
80012dcc:	00000000 	nop
80012dd0:	8c620094 	lw	v0,148(v1)
80012dd4:	00000000 	nop
80012dd8:	ac620098 	sw	v0,152(v1)
80012ddc:	8fa20010 	lw	v0,16(sp)
80012de0:	00000000 	nop
80012de4:	ac400008 	sw	zero,8(v0)
80012de8:	8e026624 	lw	v0,26148(s0)
80012dec:	00000000 	nop
80012df0:	8c4300c8 	lw	v1,200(v0)
80012df4:	8fa20010 	lw	v0,16(sp)
80012df8:	00000000 	nop
80012dfc:	ac4300c8 	sw	v1,200(v0)
80012e00:	8fa20010 	lw	v0,16(sp)
80012e04:	00000000 	nop
80012e08:	8c4200a4 	lw	v0,164(v0)
80012e0c:	8fbf001c 	lw	ra,28(sp)
80012e10:	8fb00018 	lw	s0,24(sp)
80012e14:	03e00008 	jr	ra
80012e18:	27bd0020 	addiu	sp,sp,32

80012e1c <sys_set_env_status>:
80012e1c:	27bdffe0 	addiu	sp,sp,-32
80012e20:	afbf001c 	sw	ra,28(sp)
80012e24:	afb00018 	sw	s0,24(sp)
80012e28:	00c08021 	move	s0,a2
80012e2c:	00a02021 	move	a0,a1
80012e30:	27a50010 	addiu	a1,sp,16
80012e34:	0c0040a0 	jal	80010280 <envid2env>
80012e38:	00003021 	move	a2,zero
80012e3c:	04400044 	bltz	v0,80012f50 <sys_set_env_status+0x134>
80012e40:	2402ffff 	li	v0,-1
80012e44:	2e020003 	sltiu	v0,s0,3
80012e48:	10400041 	beqz	v0,80012f50 <sys_set_env_status+0x134>
80012e4c:	2402fffd 	li	v0,-3
80012e50:	24020001 	li	v0,1
80012e54:	16020027 	bne	s0,v0,80012ef4 <sys_set_env_status+0xd8>
80012e58:	00000000 	nop
80012e5c:	8fa40010 	lw	a0,16(sp)
80012e60:	00000000 	nop
80012e64:	8c8200ac 	lw	v0,172(a0)
80012e68:	00000000 	nop
80012e6c:	10500034 	beq	v0,s0,80012f40 <sys_set_env_status+0x124>
80012e70:	3c028001 	lui	v0,0x8001
80012e74:	8c436720 	lw	v1,26400(v0)
80012e78:	00000000 	nop
80012e7c:	14600009 	bnez	v1,80012ea4 <sys_set_env_status+0x88>
80012e80:	00000000 	nop
80012e84:	ac8000b8 	sw	zero,184(a0)
80012e88:	8fa30010 	lw	v1,16(sp)
80012e8c:	00000000 	nop
80012e90:	ac436720 	sw	v1,26400(v0)
80012e94:	24426720 	addiu	v0,v0,26400
80012e98:	10000029 	b	80012f40 <sys_set_env_status+0x124>
80012e9c:	ac6200bc 	sw	v0,188(v1)
80012ea0:	00401821 	move	v1,v0
80012ea4:	8c6200b8 	lw	v0,184(v1)
80012ea8:	00000000 	nop
80012eac:	1440fffc 	bnez	v0,80012ea0 <sys_set_env_status+0x84>
80012eb0:	00000000 	nop
80012eb4:	ac8000b8 	sw	zero,184(a0)
80012eb8:	8c6400b8 	lw	a0,184(v1)
80012ebc:	00000000 	nop
80012ec0:	10800005 	beqz	a0,80012ed8 <sys_set_env_status+0xbc>
80012ec4:	00000000 	nop
80012ec8:	8fa20010 	lw	v0,16(sp)
80012ecc:	00000000 	nop
80012ed0:	244200b8 	addiu	v0,v0,184
80012ed4:	ac8200bc 	sw	v0,188(a0)
80012ed8:	8fa20010 	lw	v0,16(sp)
80012edc:	00000000 	nop
80012ee0:	ac6200b8 	sw	v0,184(v1)
80012ee4:	246300b8 	addiu	v1,v1,184
80012ee8:	8fa20010 	lw	v0,16(sp)
80012eec:	10000014 	b	80012f40 <sys_set_env_status+0x124>
80012ef0:	ac4300bc 	sw	v1,188(v0)
80012ef4:	8fa40010 	lw	a0,16(sp)
80012ef8:	00000000 	nop
80012efc:	8c8300ac 	lw	v1,172(a0)
80012f00:	00000000 	nop
80012f04:	1462000e 	bne	v1,v0,80012f40 <sys_set_env_status+0x124>
80012f08:	00000000 	nop
80012f0c:	8c8300b8 	lw	v1,184(a0)
80012f10:	00000000 	nop
80012f14:	10600004 	beqz	v1,80012f28 <sys_set_env_status+0x10c>
80012f18:	00000000 	nop
80012f1c:	8c8200bc 	lw	v0,188(a0)
80012f20:	00000000 	nop
80012f24:	ac6200bc 	sw	v0,188(v1)
80012f28:	8fa20010 	lw	v0,16(sp)
80012f2c:	00000000 	nop
80012f30:	8c4300bc 	lw	v1,188(v0)
80012f34:	8c4200b8 	lw	v0,184(v0)
80012f38:	00000000 	nop
80012f3c:	ac620000 	sw	v0,0(v1)
80012f40:	8fa20010 	lw	v0,16(sp)
80012f44:	00000000 	nop
80012f48:	ac5000ac 	sw	s0,172(v0)
80012f4c:	00001021 	move	v0,zero
80012f50:	8fbf001c 	lw	ra,28(sp)
80012f54:	8fb00018 	lw	s0,24(sp)
80012f58:	03e00008 	jr	ra
80012f5c:	27bd0020 	addiu	sp,sp,32

80012f60 <sys_set_trapframe>:
80012f60:	03e00008 	jr	ra
80012f64:	00001021 	move	v0,zero

80012f68 <sys_panic>:
80012f68:	27bdffe8 	addiu	sp,sp,-24
80012f6c:	afbf0010 	sw	ra,16(sp)
80012f70:	3c028000 	lui	v0,0x8000
80012f74:	0045102b 	sltu	v0,v0,a1
80012f78:	10400002 	beqz	v0,80012f84 <sys_panic+0x1c>
80012f7c:	00a03821 	move	a3,a1
80012f80:	3c078000 	lui	a3,0x8000
80012f84:	3c048001 	lui	a0,0x8001
80012f88:	24845dc4 	addiu	a0,a0,24004
80012f8c:	2405015b 	li	a1,347
80012f90:	3c068001 	lui	a2,0x8001
80012f94:	0c00496e 	jal	800125b8 <_panic>
80012f98:	24c65dd4 	addiu	a2,a2,24020

80012f9c <sys_ipc_recv>:
80012f9c:	27bdffe8 	addiu	sp,sp,-24
80012fa0:	afbf0010 	sw	ra,16(sp)
80012fa4:	3c068001 	lui	a2,0x8001
80012fa8:	8cc36624 	lw	v1,26148(a2)
80012fac:	24020001 	li	v0,1
80012fb0:	ac6200d4 	sw	v0,212(v1)
80012fb4:	8cc26624 	lw	v0,26148(a2)
80012fb8:	00000000 	nop
80012fbc:	ac4500d8 	sw	a1,216(v0)
80012fc0:	00002821 	move	a1,zero
80012fc4:	0c004b87 	jal	80012e1c <sys_set_env_status>
80012fc8:	24060002 	li	a2,2
80012fcc:	0c004a9c 	jal	80012a70 <sys_yield>
80012fd0:	00000000 	nop
80012fd4:	8fbf0010 	lw	ra,16(sp)
80012fd8:	00000000 	nop
80012fdc:	03e00008 	jr	ra
80012fe0:	27bd0018 	addiu	sp,sp,24

80012fe4 <sys_ipc_can_send>:
80012fe4:	27bdffc8 	addiu	sp,sp,-56
80012fe8:	afbf0034 	sw	ra,52(sp)
80012fec:	afb40030 	sw	s4,48(sp)
80012ff0:	afb3002c 	sw	s3,44(sp)
80012ff4:	afb20028 	sw	s2,40(sp)
80012ff8:	afb10024 	sw	s1,36(sp)
80012ffc:	afb00020 	sw	s0,32(sp)
80013000:	0080a021 	move	s4,a0
80013004:	00a08821 	move	s1,a1
80013008:	00c08021 	move	s0,a2
8001300c:	00e09821 	move	s3,a3
80013010:	8fb20048 	lw	s2,72(sp)
80013014:	00a02021 	move	a0,a1
80013018:	27a50018 	addiu	a1,sp,24
8001301c:	0c0040a0 	jal	80010280 <envid2env>
80013020:	00003021 	move	a2,zero
80013024:	0440002a 	bltz	v0,800130d0 <sys_ipc_can_send+0xec>
80013028:	2402ffff 	li	v0,-1
8001302c:	8fa40018 	lw	a0,24(sp)
80013030:	00000000 	nop
80013034:	8c8300d4 	lw	v1,212(a0)
80013038:	24020001 	li	v0,1
8001303c:	14620024 	bne	v1,v0,800130d0 <sys_ipc_can_send+0xec>
80013040:	2402fffa 	li	v0,-6
80013044:	ac9000cc 	sw	s0,204(a0)
80013048:	8fa20018 	lw	v0,24(sp)
8001304c:	00000000 	nop
80013050:	ac4000d4 	sw	zero,212(v0)
80013054:	8fa20018 	lw	v0,24(sp)
80013058:	00000000 	nop
8001305c:	ac5200dc 	sw	s2,220(v0)
80013060:	3c028001 	lui	v0,0x8001
80013064:	8c426624 	lw	v0,26148(v0)
80013068:	00000000 	nop
8001306c:	8c4300a4 	lw	v1,164(v0)
80013070:	8fa20018 	lw	v0,24(sp)
80013074:	1260000e 	beqz	s3,800130b0 <sys_ipc_can_send+0xcc>
80013078:	ac4300d0 	sw	v1,208(v0)
8001307c:	8fa20018 	lw	v0,24(sp)
80013080:	00000000 	nop
80013084:	8c4200d8 	lw	v0,216(v0)
80013088:	00000000 	nop
8001308c:	afa20010 	sw	v0,16(sp)
80013090:	afb20014 	sw	s2,20(sp)
80013094:	02802021 	move	a0,s4
80013098:	00002821 	move	a1,zero
8001309c:	02603021 	move	a2,s3
800130a0:	0c004b07 	jal	80012c1c <sys_mem_map>
800130a4:	02203821 	move	a3,s1
800130a8:	04400009 	bltz	v0,800130d0 <sys_ipc_can_send+0xec>
800130ac:	00000000 	nop
800130b0:	02802021 	move	a0,s4
800130b4:	8fa20018 	lw	v0,24(sp)
800130b8:	00000000 	nop
800130bc:	8c4500a4 	lw	a1,164(v0)
800130c0:	0c004b87 	jal	80012e1c <sys_set_env_status>
800130c4:	24060001 	li	a2,1
800130c8:	00021fc3 	sra	v1,v0,0x1f
800130cc:	00621024 	and	v0,v1,v0
800130d0:	8fbf0034 	lw	ra,52(sp)
800130d4:	8fb40030 	lw	s4,48(sp)
800130d8:	8fb3002c 	lw	s3,44(sp)
800130dc:	8fb20028 	lw	s2,40(sp)
800130e0:	8fb10024 	lw	s1,36(sp)
800130e4:	8fb00020 	lw	s0,32(sp)
800130e8:	03e00008 	jr	ra
800130ec:	27bd0038 	addiu	sp,sp,56

800130f0 <sys_write_dev>:
800130f0:	27bdffe8 	addiu	sp,sp,-24
800130f4:	afbf0010 	sw	ra,16(sp)
800130f8:	3c0214ff 	lui	v0,0x14ff
800130fc:	3442ffff 	ori	v0,v0,0xffff
80013100:	0046102b 	sltu	v0,v0,a2
80013104:	10400009 	beqz	v0,8001312c <sys_write_dev+0x3c>
80013108:	00a02021 	move	a0,a1
8001310c:	00c71821 	addu	v1,a2,a3
80013110:	3c021500 	lui	v0,0x1500
80013114:	344201ff 	ori	v0,v0,0x1ff
80013118:	0043182b 	sltu	v1,v0,v1
8001311c:	1060001a 	beqz	v1,80013188 <sys_write_dev+0x98>
80013120:	00000000 	nop
80013124:	1000001f 	b	800131a4 <sys_write_dev+0xb4>
80013128:	2402fffd 	li	v0,-3
8001312c:	3c0212ff 	lui	v0,0x12ff
80013130:	3442ffff 	ori	v0,v0,0xffff
80013134:	0046102b 	sltu	v0,v0,a2
80013138:	10400009 	beqz	v0,80013160 <sys_write_dev+0x70>
8001313c:	3c020fff 	lui	v0,0xfff
80013140:	00c71821 	addu	v1,a2,a3
80013144:	3c021300 	lui	v0,0x1300
80013148:	34424200 	ori	v0,v0,0x4200
8001314c:	0043182b 	sltu	v1,v0,v1
80013150:	1060000e 	beqz	v1,8001318c <sys_write_dev+0x9c>
80013154:	3c05a000 	lui	a1,0xa000
80013158:	10000012 	b	800131a4 <sys_write_dev+0xb4>
8001315c:	2402fffd 	li	v0,-3
80013160:	3442ffff 	ori	v0,v0,0xffff
80013164:	0046102b 	sltu	v0,v0,a2
80013168:	1040000e 	beqz	v0,800131a4 <sys_write_dev+0xb4>
8001316c:	2402fffd 	li	v0,-3
80013170:	00c71821 	addu	v1,a2,a3
80013174:	3c021000 	lui	v0,0x1000
80013178:	34420020 	ori	v0,v0,0x20
8001317c:	0043182b 	sltu	v1,v0,v1
80013180:	14600007 	bnez	v1,800131a0 <sys_write_dev+0xb0>
80013184:	00000000 	nop
80013188:	3c05a000 	lui	a1,0xa000
8001318c:	00c52821 	addu	a1,a2,a1
80013190:	0c004040 	jal	80010100 <bcopy>
80013194:	00e03021 	move	a2,a3
80013198:	10000002 	b	800131a4 <sys_write_dev+0xb4>
8001319c:	00001021 	move	v0,zero
800131a0:	2402fffd 	li	v0,-3
800131a4:	8fbf0010 	lw	ra,16(sp)
800131a8:	00000000 	nop
800131ac:	03e00008 	jr	ra
800131b0:	27bd0018 	addiu	sp,sp,24

800131b4 <sys_read_dev>:
800131b4:	27bdffe8 	addiu	sp,sp,-24
800131b8:	3c0214ff 	lui	v0,0x14ff
800131bc:	3442ffff 	ori	v0,v0,0xffff
800131c0:	0046102b 	sltu	v0,v0,a2
800131c4:	10400009 	beqz	v0,800131ec <sys_read_dev+0x38>
800131c8:	afbf0010 	sw	ra,16(sp)
800131cc:	00c71821 	addu	v1,a2,a3
800131d0:	3c021500 	lui	v0,0x1500
800131d4:	344201ff 	ori	v0,v0,0x1ff
800131d8:	0043182b 	sltu	v1,v0,v1
800131dc:	1060001a 	beqz	v1,80013248 <sys_read_dev+0x94>
800131e0:	3c04a000 	lui	a0,0xa000
800131e4:	1000001e 	b	80013260 <sys_read_dev+0xac>
800131e8:	2402fffd 	li	v0,-3
800131ec:	3c0212ff 	lui	v0,0x12ff
800131f0:	3442ffff 	ori	v0,v0,0xffff
800131f4:	0046102b 	sltu	v0,v0,a2
800131f8:	10400009 	beqz	v0,80013220 <sys_read_dev+0x6c>
800131fc:	3c020fff 	lui	v0,0xfff
80013200:	00c71821 	addu	v1,a2,a3
80013204:	3c021300 	lui	v0,0x1300
80013208:	34424200 	ori	v0,v0,0x4200
8001320c:	0043182b 	sltu	v1,v0,v1
80013210:	1060000d 	beqz	v1,80013248 <sys_read_dev+0x94>
80013214:	3c04a000 	lui	a0,0xa000
80013218:	10000011 	b	80013260 <sys_read_dev+0xac>
8001321c:	2402fffd 	li	v0,-3
80013220:	3442ffff 	ori	v0,v0,0xffff
80013224:	0046102b 	sltu	v0,v0,a2
80013228:	1040000d 	beqz	v0,80013260 <sys_read_dev+0xac>
8001322c:	2402fffd 	li	v0,-3
80013230:	00c71821 	addu	v1,a2,a3
80013234:	3c021000 	lui	v0,0x1000
80013238:	34420020 	ori	v0,v0,0x20
8001323c:	0043182b 	sltu	v1,v0,v1
80013240:	14600006 	bnez	v1,8001325c <sys_read_dev+0xa8>
80013244:	3c04a000 	lui	a0,0xa000
80013248:	00c42021 	addu	a0,a2,a0
8001324c:	0c004040 	jal	80010100 <bcopy>
80013250:	00e03021 	move	a2,a3
80013254:	10000002 	b	80013260 <sys_read_dev+0xac>
80013258:	00001021 	move	v0,zero
8001325c:	2402fffd 	li	v0,-3
80013260:	8fbf0010 	lw	ra,16(sp)
80013264:	00000000 	nop
80013268:	03e00008 	jr	ra
8001326c:	27bd0018 	addiu	sp,sp,24

80013270 <sys_init_PV_var>:
80013270:	00002021 	move	a0,zero
80013274:	3c028001 	lui	v0,0x8001
80013278:	24436654 	addiu	v1,v0,26196
8001327c:	24060005 	li	a2,5
80013280:	8c620000 	lw	v0,0(v1)
80013284:	00000000 	nop
80013288:	1440000d 	bnez	v0,800132c0 <sys_init_PV_var+0x50>
8001328c:	24840001 	addiu	a0,a0,1
80013290:	2484ffff 	addiu	a0,a0,-1
80013294:	00041100 	sll	v0,a0,0x4
80013298:	3c038001 	lui	v1,0x8001
8001329c:	24636650 	addiu	v1,v1,26192
800132a0:	00431021 	addu	v0,v0,v1
800132a4:	ac40000c 	sw	zero,12(v0)
800132a8:	ac450000 	sw	a1,0(v0)
800132ac:	24030001 	li	v1,1
800132b0:	ac430004 	sw	v1,4(v0)
800132b4:	8c420008 	lw	v0,8(v0)
800132b8:	03e00008 	jr	ra
800132bc:	00000000 	nop
800132c0:	1486ffef 	bne	a0,a2,80013280 <sys_init_PV_var+0x10>
800132c4:	24630010 	addiu	v1,v1,16
800132c8:	03e00008 	jr	ra
800132cc:	2402fffd 	li	v0,-3

800132d0 <sys_P>:
800132d0:	27bdffe8 	addiu	sp,sp,-24
800132d4:	2ca20005 	sltiu	v0,a1,5
800132d8:	10400048 	beqz	v0,800133fc <sys_P+0x12c>
800132dc:	afbf0010 	sw	ra,16(sp)
800132e0:	00051900 	sll	v1,a1,0x4
800132e4:	3c028001 	lui	v0,0x8001
800132e8:	24426650 	addiu	v0,v0,26192
800132ec:	00621821 	addu	v1,v1,v0
800132f0:	8c620000 	lw	v0,0(v1)
800132f4:	00000000 	nop
800132f8:	18400003 	blez	v0,80013308 <sys_P+0x38>
800132fc:	2442ffff 	addiu	v0,v0,-1
80013300:	1000003e 	b	800133fc <sys_P+0x12c>
80013304:	ac620000 	sw	v0,0(v1)
80013308:	3c048001 	lui	a0,0x8001
8001330c:	8c836624 	lw	v1,26148(a0)
80013310:	24020002 	li	v0,2
80013314:	ac6200ac 	sw	v0,172(v1)
80013318:	8c826624 	lw	v0,26148(a0)
8001331c:	00000000 	nop
80013320:	8c4300b8 	lw	v1,184(v0)
80013324:	00000000 	nop
80013328:	10600004 	beqz	v1,8001333c <sys_P+0x6c>
8001332c:	3c078001 	lui	a3,0x8001
80013330:	8c4200bc 	lw	v0,188(v0)
80013334:	00000000 	nop
80013338:	ac6200bc 	sw	v0,188(v1)
8001333c:	8ce26624 	lw	v0,26148(a3)
80013340:	00000000 	nop
80013344:	8c4300bc 	lw	v1,188(v0)
80013348:	8c4200b8 	lw	v0,184(v0)
8001334c:	00000000 	nop
80013350:	ac620000 	sw	v0,0(v1)
80013354:	3c028001 	lui	v0,0x8001
80013358:	24486650 	addiu	t0,v0,26192
8001335c:	00052900 	sll	a1,a1,0x4
80013360:	00a83021 	addu	a2,a1,t0
80013364:	8cc4000c 	lw	a0,12(a2)
80013368:	00000000 	nop
8001336c:	1480000b 	bnez	a0,8001339c <sys_P+0xcc>
80013370:	00000000 	nop
80013374:	8ce26624 	lw	v0,26148(a3)
80013378:	00000000 	nop
8001337c:	ac4000c0 	sw	zero,192(v0)
80013380:	8ce36624 	lw	v1,26148(a3)
80013384:	00000000 	nop
80013388:	acc3000c 	sw	v1,12(a2)
8001338c:	24c2000c 	addiu	v0,a2,12
80013390:	10000018 	b	800133f4 <sys_P+0x124>
80013394:	ac6200c4 	sw	v0,196(v1)
80013398:	00402021 	move	a0,v0
8001339c:	8c8200c0 	lw	v0,192(a0)
800133a0:	00000000 	nop
800133a4:	1440fffc 	bnez	v0,80013398 <sys_P+0xc8>
800133a8:	3c058001 	lui	a1,0x8001
800133ac:	8ca26624 	lw	v0,26148(a1)
800133b0:	00000000 	nop
800133b4:	ac4000c0 	sw	zero,192(v0)
800133b8:	8c8300c0 	lw	v1,192(a0)
800133bc:	00000000 	nop
800133c0:	10600005 	beqz	v1,800133d8 <sys_P+0x108>
800133c4:	00000000 	nop
800133c8:	8ca26624 	lw	v0,26148(a1)
800133cc:	00000000 	nop
800133d0:	244200c0 	addiu	v0,v0,192
800133d4:	ac6200c4 	sw	v0,196(v1)
800133d8:	3c038001 	lui	v1,0x8001
800133dc:	8c626624 	lw	v0,26148(v1)
800133e0:	00000000 	nop
800133e4:	ac8200c0 	sw	v0,192(a0)
800133e8:	8c636624 	lw	v1,26148(v1)
800133ec:	248200c0 	addiu	v0,a0,192
800133f0:	ac6200c4 	sw	v0,196(v1)
800133f4:	0c004a9c 	jal	80012a70 <sys_yield>
800133f8:	00000000 	nop
800133fc:	8fbf0010 	lw	ra,16(sp)
80013400:	00000000 	nop
80013404:	03e00008 	jr	ra
80013408:	27bd0018 	addiu	sp,sp,24

8001340c <sys_V>:
8001340c:	2ca20005 	sltiu	v0,a1,5
80013410:	10400038 	beqz	v0,800134f4 <sys_V+0xe8>
80013414:	00051100 	sll	v0,a1,0x4
80013418:	3c038001 	lui	v1,0x8001
8001341c:	24636650 	addiu	v1,v1,26192
80013420:	00431021 	addu	v0,v0,v1
80013424:	8c430000 	lw	v1,0(v0)
80013428:	00000000 	nop
8001342c:	24630001 	addiu	v1,v1,1
80013430:	ac430000 	sw	v1,0(v0)
80013434:	8c44000c 	lw	a0,12(v0)
80013438:	00000000 	nop
8001343c:	1080002d 	beqz	a0,800134f4 <sys_V+0xe8>
80013440:	24020001 	li	v0,1
80013444:	ac8200ac 	sw	v0,172(a0)
80013448:	8c8300c0 	lw	v1,192(a0)
8001344c:	00000000 	nop
80013450:	10600004 	beqz	v1,80013464 <sys_V+0x58>
80013454:	00000000 	nop
80013458:	8c8200c4 	lw	v0,196(a0)
8001345c:	00000000 	nop
80013460:	ac6200c4 	sw	v0,196(v1)
80013464:	8c8300c4 	lw	v1,196(a0)
80013468:	8c8200c0 	lw	v0,192(a0)
8001346c:	00000000 	nop
80013470:	ac620000 	sw	v0,0(v1)
80013474:	3c028001 	lui	v0,0x8001
80013478:	8c436720 	lw	v1,26400(v0)
8001347c:	00000000 	nop
80013480:	14600007 	bnez	v1,800134a0 <sys_V+0x94>
80013484:	00000000 	nop
80013488:	ac8000b8 	sw	zero,184(a0)
8001348c:	ac446720 	sw	a0,26400(v0)
80013490:	24426720 	addiu	v0,v0,26400
80013494:	1000000f 	b	800134d4 <sys_V+0xc8>
80013498:	ac8200bc 	sw	v0,188(a0)
8001349c:	00401821 	move	v1,v0
800134a0:	8c6200b8 	lw	v0,184(v1)
800134a4:	00000000 	nop
800134a8:	1440fffc 	bnez	v0,8001349c <sys_V+0x90>
800134ac:	00000000 	nop
800134b0:	ac8000b8 	sw	zero,184(a0)
800134b4:	8c6600b8 	lw	a2,184(v1)
800134b8:	00000000 	nop
800134bc:	10c00002 	beqz	a2,800134c8 <sys_V+0xbc>
800134c0:	248200b8 	addiu	v0,a0,184
800134c4:	acc200bc 	sw	v0,188(a2)
800134c8:	ac6400b8 	sw	a0,184(v1)
800134cc:	246200b8 	addiu	v0,v1,184
800134d0:	ac8200bc 	sw	v0,188(a0)
800134d4:	00051100 	sll	v0,a1,0x4
800134d8:	3c038001 	lui	v1,0x8001
800134dc:	24636650 	addiu	v1,v1,26192
800134e0:	00431021 	addu	v0,v0,v1
800134e4:	8c430000 	lw	v1,0(v0)
800134e8:	00000000 	nop
800134ec:	2463ffff 	addiu	v1,v1,-1
800134f0:	ac430000 	sw	v1,0(v0)
800134f4:	03e00008 	jr	ra
800134f8:	00000000 	nop

800134fc <sys_check_PV_value>:
800134fc:	2ca20005 	sltiu	v0,a1,5
80013500:	14400003 	bnez	v0,80013510 <sys_check_PV_value+0x14>
80013504:	00051900 	sll	v1,a1,0x4
80013508:	03e00008 	jr	ra
8001350c:	2402fffd 	li	v0,-3
80013510:	3c028001 	lui	v0,0x8001
80013514:	24426650 	addiu	v0,v0,26192
80013518:	00621821 	addu	v1,v1,v0
8001351c:	8c620000 	lw	v0,0(v1)
80013520:	03e00008 	jr	ra
80013524:	00000000 	nop

80013528 <dick>:
80013528:	03e00008 	jr	ra
8001352c:	00000000 	nop

80013530 <sys_release_PV_var>:
80013530:	27bdffe0 	addiu	sp,sp,-32
80013534:	afbf0018 	sw	ra,24(sp)
80013538:	afb10014 	sw	s1,20(sp)
8001353c:	afb00010 	sw	s0,16(sp)
80013540:	2ca20005 	sltiu	v0,a1,5
80013544:	10400018 	beqz	v0,800135a8 <sys_release_PV_var+0x78>
80013548:	00a08821 	move	s1,a1
8001354c:	00051900 	sll	v1,a1,0x4
80013550:	3c028001 	lui	v0,0x8001
80013554:	24426650 	addiu	v0,v0,26192
80013558:	00621821 	addu	v1,v1,v0
8001355c:	8c64000c 	lw	a0,12(v1)
80013560:	00000000 	nop
80013564:	1080000a 	beqz	a0,80013590 <sys_release_PV_var+0x60>
80013568:	00051900 	sll	v1,a1,0x4
8001356c:	3c028001 	lui	v0,0x8001
80013570:	24426650 	addiu	v0,v0,26192
80013574:	00628021 	addu	s0,v1,v0
80013578:	0c004290 	jal	80010a40 <env_free>
8001357c:	00000000 	nop
80013580:	8e04000c 	lw	a0,12(s0)
80013584:	00000000 	nop
80013588:	1480fffb 	bnez	a0,80013578 <sys_release_PV_var+0x48>
8001358c:	00000000 	nop
80013590:	00111900 	sll	v1,s1,0x4
80013594:	3c028001 	lui	v0,0x8001
80013598:	24426650 	addiu	v0,v0,26192
8001359c:	00621821 	addu	v1,v1,v0
800135a0:	0c004a9c 	jal	80012a70 <sys_yield>
800135a4:	ac600004 	sw	zero,4(v1)
800135a8:	8fbf0018 	lw	ra,24(sp)
800135ac:	8fb10014 	lw	s1,20(sp)
800135b0:	8fb00010 	lw	s0,16(sp)
800135b4:	03e00008 	jr	ra
800135b8:	27bd0020 	addiu	sp,sp,32
800135bc:	00000000 	nop

800135c0 <trap_init>:
800135c0:	27bdffe0 	addiu	sp,sp,-32
800135c4:	afbf001c 	sw	ra,28(sp)
800135c8:	afb20018 	sw	s2,24(sp)
800135cc:	afb10014 	sw	s1,20(sp)
800135d0:	afb00010 	sw	s0,16(sp)
800135d4:	00008021 	move	s0,zero
800135d8:	3c128001 	lui	s2,0x8001
800135dc:	24110020 	li	s1,32
800135e0:	02002021 	move	a0,s0
800135e4:	0c004d97 	jal	8001365c <set_except_vector>
800135e8:	264516c0 	addiu	a1,s2,5824
800135ec:	26100001 	addiu	s0,s0,1
800135f0:	1611fffc 	bne	s0,s1,800135e4 <trap_init+0x24>
800135f4:	02002021 	move	a0,s0
800135f8:	00002021 	move	a0,zero
800135fc:	3c058001 	lui	a1,0x8001
80013600:	0c004d97 	jal	8001365c <set_except_vector>
80013604:	24a51480 	addiu	a1,a1,5248
80013608:	24040001 	li	a0,1
8001360c:	3c058001 	lui	a1,0x8001
80013610:	0c004d97 	jal	8001365c <set_except_vector>
80013614:	24a51940 	addiu	a1,a1,6464
80013618:	24040002 	li	a0,2
8001361c:	3c108001 	lui	s0,0x8001
80013620:	0c004d97 	jal	8001365c <set_except_vector>
80013624:	26051800 	addiu	a1,s0,6144
80013628:	24040003 	li	a0,3
8001362c:	0c004d97 	jal	8001365c <set_except_vector>
80013630:	26051800 	addiu	a1,s0,6144
80013634:	24040008 	li	a0,8
80013638:	3c058001 	lui	a1,0x8001
8001363c:	0c004d97 	jal	8001365c <set_except_vector>
80013640:	24a52820 	addiu	a1,a1,10272
80013644:	8fbf001c 	lw	ra,28(sp)
80013648:	8fb20018 	lw	s2,24(sp)
8001364c:	8fb10014 	lw	s1,20(sp)
80013650:	8fb00010 	lw	s0,16(sp)
80013654:	03e00008 	jr	ra
80013658:	27bd0020 	addiu	sp,sp,32

8001365c <set_except_vector>:
8001365c:	00042080 	sll	a0,a0,0x2
80013660:	3c028001 	lui	v0,0x8001
80013664:	244266a0 	addiu	v0,v0,26272
80013668:	00822021 	addu	a0,a0,v0
8001366c:	8c820000 	lw	v0,0(a0)
80013670:	03e00008 	jr	ra
80013674:	ac850000 	sw	a1,0(a0)

80013678 <page_fault_handler>:
80013678:	27bdff48 	addiu	sp,sp,-184
8001367c:	afbf00b4 	sw	ra,180(sp)
80013680:	afb000b0 	sw	s0,176(sp)
80013684:	00808021 	move	s0,a0
80013688:	27a50010 	addiu	a1,sp,16
8001368c:	0c004040 	jal	80010100 <bcopy>
80013690:	2406009c 	li	a2,156
80013694:	8e050074 	lw	a1,116(s0)
80013698:	3c028001 	lui	v0,0x8001
8001369c:	8c426624 	lw	v0,26148(v0)
800136a0:	00000000 	nop
800136a4:	8c4300e4 	lw	v1,228(v0)
800136a8:	00000000 	nop
800136ac:	2462f000 	addiu	v0,v1,-4096
800136b0:	00a2102b 	sltu	v0,a1,v0
800136b4:	1440000a 	bnez	v0,800136e0 <page_fault_handler+0x68>
800136b8:	2462ffff 	addiu	v0,v1,-1
800136bc:	0045102b 	sltu	v0,v0,a1
800136c0:	14400007 	bnez	v0,800136e0 <page_fault_handler+0x68>
800136c4:	24a5ff64 	addiu	a1,a1,-156
800136c8:	ae050074 	sw	a1,116(s0)
800136cc:	27a40010 	addiu	a0,sp,16
800136d0:	0c004040 	jal	80010100 <bcopy>
800136d4:	2406009c 	li	a2,156
800136d8:	1000000c 	b	8001370c <page_fault_handler+0x94>
800136dc:	3c028001 	lui	v0,0x8001
800136e0:	2462ff64 	addiu	v0,v1,-156
800136e4:	ae020074 	sw	v0,116(s0)
800136e8:	3c028001 	lui	v0,0x8001
800136ec:	8c426624 	lw	v0,26148(v0)
800136f0:	00000000 	nop
800136f4:	8c4500e4 	lw	a1,228(v0)
800136f8:	27a40010 	addiu	a0,sp,16
800136fc:	24a5ff64 	addiu	a1,a1,-156
80013700:	0c004040 	jal	80010100 <bcopy>
80013704:	2406009c 	li	a2,156
80013708:	3c028001 	lui	v0,0x8001
8001370c:	8c426624 	lw	v0,26148(v0)
80013710:	00000000 	nop
80013714:	8c4200e0 	lw	v0,224(v0)
80013718:	00000000 	nop
8001371c:	ae020094 	sw	v0,148(s0)
80013720:	8fbf00b4 	lw	ra,180(sp)
80013724:	8fb000b0 	lw	s0,176(sp)
80013728:	03e00008 	jr	ra
8001372c:	27bd00b8 	addiu	sp,sp,184

80013730 <mips_detect_memory>:
80013730:	27bdffe8 	addiu	sp,sp,-24
80013734:	afbf0014 	sw	ra,20(sp)
80013738:	afb00010 	sw	s0,16(sp)
8001373c:	3c108001 	lui	s0,0x8001
80013740:	3c030400 	lui	v1,0x400
80013744:	ae036734 	sw	v1,26420(s0)
80013748:	3c028001 	lui	v0,0x8001
8001374c:	ac436730 	sw	v1,26416(v0)
80013750:	24034000 	li	v1,16384
80013754:	3c028001 	lui	v0,0x8001
80013758:	ac436728 	sw	v1,26408(v0)
8001375c:	3c048001 	lui	a0,0x8001
80013760:	24845dd8 	addiu	a0,a0,24024
80013764:	0c00495e 	jal	80012578 <printf>
80013768:	3c050001 	lui	a1,0x1
8001376c:	8e056734 	lw	a1,26420(s0)
80013770:	3c028001 	lui	v0,0x8001
80013774:	8c466738 	lw	a2,26424(v0)
80013778:	3c048001 	lui	a0,0x8001
8001377c:	24845dfc 	addiu	a0,a0,24060
80013780:	00052a82 	srl	a1,a1,0xa
80013784:	0c00495e 	jal	80012578 <printf>
80013788:	00063282 	srl	a2,a2,0xa
8001378c:	8fbf0014 	lw	ra,20(sp)
80013790:	8fb00010 	lw	s0,16(sp)
80013794:	03e00008 	jr	ra
80013798:	27bd0018 	addiu	sp,sp,24

8001379c <alloc>:
8001379c:	27bdffe8 	addiu	sp,sp,-24
800137a0:	afbf0014 	sw	ra,20(sp)
800137a4:	afb00010 	sw	s0,16(sp)
800137a8:	00803821 	move	a3,a0
800137ac:	3c048001 	lui	a0,0x8001
800137b0:	8c826640 	lw	v0,26176(a0)
800137b4:	00000000 	nop
800137b8:	14400008 	bnez	v0,800137dc <alloc+0x40>
800137bc:	00a21021 	addu	v0,a1,v0
800137c0:	3c028040 	lui	v0,0x8040
800137c4:	24420000 	addiu	v0,v0,0
800137c8:	ac826640 	sw	v0,26176(a0)
800137cc:	3c048001 	lui	a0,0x8001
800137d0:	8c826640 	lw	v0,26176(a0)
800137d4:	00000000 	nop
800137d8:	00a21021 	addu	v0,a1,v0
800137dc:	2442ffff 	addiu	v0,v0,-1
800137e0:	00051823 	negu	v1,a1
800137e4:	00438024 	and	s0,v0,v1
800137e8:	02071021 	addu	v0,s0,a3
800137ec:	10c00004 	beqz	a2,80013800 <alloc+0x64>
800137f0:	ac826640 	sw	v0,26176(a0)
800137f4:	02002021 	move	a0,s0
800137f8:	0c004059 	jal	80010164 <bzero>
800137fc:	00e02821 	move	a1,a3
80013800:	3c028001 	lui	v0,0x8001
80013804:	8c476640 	lw	a3,26176(v0)
80013808:	00000000 	nop
8001380c:	04e00007 	bltz	a3,8001382c <alloc+0x90>
80013810:	3c028000 	lui	v0,0x8000
80013814:	3c048001 	lui	a0,0x8001
80013818:	24845e18 	addiu	a0,a0,24088
8001381c:	24050047 	li	a1,71
80013820:	3c068001 	lui	a2,0x8001
80013824:	0c00496e 	jal	800125b8 <_panic>
80013828:	24c65e20 	addiu	a2,a2,24096
8001382c:	00e21021 	addu	v0,a3,v0
80013830:	3c038001 	lui	v1,0x8001
80013834:	8c636730 	lw	v1,26416(v1)
80013838:	00000000 	nop
8001383c:	0043102b 	sltu	v0,v0,v1
80013840:	14400007 	bnez	v0,80013860 <alloc+0xc4>
80013844:	02001021 	move	v0,s0
80013848:	3c048001 	lui	a0,0x8001
8001384c:	24845e18 	addiu	a0,a0,24088
80013850:	24050048 	li	a1,72
80013854:	3c068001 	lui	a2,0x8001
80013858:	0c00496e 	jal	800125b8 <_panic>
8001385c:	24c65e44 	addiu	a2,a2,24132
80013860:	8fbf0014 	lw	ra,20(sp)
80013864:	8fb00010 	lw	s0,16(sp)
80013868:	03e00008 	jr	ra
8001386c:	27bd0018 	addiu	sp,sp,24

80013870 <boot_pgdir_walk>:
80013870:	27bdffe0 	addiu	sp,sp,-32
80013874:	afbf0018 	sw	ra,24(sp)
80013878:	afb10014 	sw	s1,20(sp)
8001387c:	afb00010 	sw	s0,16(sp)
80013880:	00051582 	srl	v0,a1,0x16
80013884:	00021080 	sll	v0,v0,0x2
80013888:	00448021 	addu	s0,v0,a0
8001388c:	8e020000 	lw	v0,0(s0)
80013890:	00000000 	nop
80013894:	30420200 	andi	v0,v0,0x200
80013898:	14400014 	bnez	v0,800138ec <boot_pgdir_walk+0x7c>
8001389c:	00a08821 	move	s1,a1
800138a0:	24020001 	li	v0,1
800138a4:	14c20025 	bne	a2,v0,8001393c <boot_pgdir_walk+0xcc>
800138a8:	00001021 	move	v0,zero
800138ac:	24041000 	li	a0,4096
800138b0:	24051000 	li	a1,4096
800138b4:	0c004de7 	jal	8001379c <alloc>
800138b8:	24060001 	li	a2,1
800138bc:	04400007 	bltz	v0,800138dc <boot_pgdir_walk+0x6c>
800138c0:	00403821 	move	a3,v0
800138c4:	3c048001 	lui	a0,0x8001
800138c8:	24845e18 	addiu	a0,a0,24088
800138cc:	24050065 	li	a1,101
800138d0:	3c068001 	lui	a2,0x8001
800138d4:	0c00496e 	jal	800125b8 <_panic>
800138d8:	24c65e20 	addiu	a2,a2,24096
800138dc:	3c028000 	lui	v0,0x8000
800138e0:	00e21021 	addu	v0,a3,v0
800138e4:	34420600 	ori	v0,v0,0x600
800138e8:	ae020000 	sw	v0,0(s0)
800138ec:	8e030000 	lw	v1,0(s0)
800138f0:	2402f000 	li	v0,-4096
800138f4:	00623824 	and	a3,v1,v0
800138f8:	00071302 	srl	v0,a3,0xc
800138fc:	3c038001 	lui	v1,0x8001
80013900:	8c636728 	lw	v1,26408(v1)
80013904:	00000000 	nop
80013908:	0043102b 	sltu	v0,v0,v1
8001390c:	14400007 	bnez	v0,8001392c <boot_pgdir_walk+0xbc>
80013910:	3c038000 	lui	v1,0x8000
80013914:	3c048001 	lui	a0,0x8001
80013918:	24845e18 	addiu	a0,a0,24088
8001391c:	2405006a 	li	a1,106
80013920:	3c068001 	lui	a2,0x8001
80013924:	0c00496e 	jal	800125b8 <_panic>
80013928:	24c659e4 	addiu	a2,a2,23012
8001392c:	00e31821 	addu	v1,a3,v1
80013930:	00111282 	srl	v0,s1,0xa
80013934:	30420ffc 	andi	v0,v0,0xffc
80013938:	00621021 	addu	v0,v1,v0
8001393c:	8fbf0018 	lw	ra,24(sp)
80013940:	8fb10014 	lw	s1,20(sp)
80013944:	8fb00010 	lw	s0,16(sp)
80013948:	03e00008 	jr	ra
8001394c:	27bd0020 	addiu	sp,sp,32

80013950 <boot_map_segment>:
80013950:	27bdffc8 	addiu	sp,sp,-56
80013954:	afbf0030 	sw	ra,48(sp)
80013958:	afb7002c 	sw	s7,44(sp)
8001395c:	afb60028 	sw	s6,40(sp)
80013960:	afb50024 	sw	s5,36(sp)
80013964:	afb40020 	sw	s4,32(sp)
80013968:	afb3001c 	sw	s3,28(sp)
8001396c:	afb20018 	sw	s2,24(sp)
80013970:	afb10014 	sw	s1,20(sp)
80013974:	afb00010 	sw	s0,16(sp)
80013978:	0080b821 	move	s7,a0
8001397c:	00a0b021 	move	s6,a1
80013980:	00c08821 	move	s1,a2
80013984:	8fb40048 	lw	s4,72(sp)
80013988:	30c20fff 	andi	v0,a2,0xfff
8001398c:	10400014 	beqz	v0,800139e0 <boot_map_segment+0x90>
80013990:	00e0a821 	move	s5,a3
80013994:	10000014 	b	800139e8 <boot_map_segment+0x98>
80013998:	00000000 	nop
8001399c:	00008021 	move	s0,zero
800139a0:	2413f000 	li	s3,-4096
800139a4:	02e02021 	move	a0,s7
800139a8:	02162821 	addu	a1,s0,s6
800139ac:	0c004e1c 	jal	80013870 <boot_pgdir_walk>
800139b0:	24060001 	li	a2,1
800139b4:	02151821 	addu	v1,s0,s5
800139b8:	00731824 	and	v1,v1,s3
800139bc:	00741825 	or	v1,v1,s4
800139c0:	34630200 	ori	v1,v1,0x200
800139c4:	ac430000 	sw	v1,0(v0)
800139c8:	26501000 	addiu	s0,s2,4096
800139cc:	0211102b 	sltu	v0,s0,s1
800139d0:	10400005 	beqz	v0,800139e8 <boot_map_segment+0x98>
800139d4:	02009021 	move	s2,s0
800139d8:	1000fff3 	b	800139a8 <boot_map_segment+0x58>
800139dc:	02e02021 	move	a0,s7
800139e0:	14c0ffee 	bnez	a2,8001399c <boot_map_segment+0x4c>
800139e4:	00009021 	move	s2,zero
800139e8:	8fbf0030 	lw	ra,48(sp)
800139ec:	8fb7002c 	lw	s7,44(sp)
800139f0:	8fb60028 	lw	s6,40(sp)
800139f4:	8fb50024 	lw	s5,36(sp)
800139f8:	8fb40020 	lw	s4,32(sp)
800139fc:	8fb3001c 	lw	s3,28(sp)
80013a00:	8fb20018 	lw	s2,24(sp)
80013a04:	8fb10014 	lw	s1,20(sp)
80013a08:	8fb00010 	lw	s0,16(sp)
80013a0c:	03e00008 	jr	ra
80013a10:	27bd0038 	addiu	sp,sp,56

80013a14 <mips_vm_init>:
80013a14:	27bdffd0 	addiu	sp,sp,-48
80013a18:	afbf0028 	sw	ra,40(sp)
80013a1c:	afb30024 	sw	s3,36(sp)
80013a20:	afb20020 	sw	s2,32(sp)
80013a24:	afb1001c 	sw	s1,28(sp)
80013a28:	afb00018 	sw	s0,24(sp)
80013a2c:	24041000 	li	a0,4096
80013a30:	24051000 	li	a1,4096
80013a34:	0c004de7 	jal	8001379c <alloc>
80013a38:	24060001 	li	a2,1
80013a3c:	00409821 	move	s3,v0
80013a40:	3c128001 	lui	s2,0x8001
80013a44:	3c048001 	lui	a0,0x8001
80013a48:	8e456640 	lw	a1,26176(s2)
80013a4c:	0c00495e 	jal	80012578 <printf>
80013a50:	24845e54 	addiu	a0,a0,24148
80013a54:	3c028001 	lui	v0,0x8001
80013a58:	ac536740 	sw	s3,26432(v0)
80013a5c:	3c028001 	lui	v0,0x8001
80013a60:	ac53672c 	sw	s3,26412(v0)
80013a64:	3c118001 	lui	s1,0x8001
80013a68:	8e246728 	lw	a0,26408(s1)
80013a6c:	00000000 	nop
80013a70:	00041080 	sll	v0,a0,0x2
80013a74:	00042100 	sll	a0,a0,0x4
80013a78:	00822023 	subu	a0,a0,v0
80013a7c:	24051000 	li	a1,4096
80013a80:	0c004de7 	jal	8001379c <alloc>
80013a84:	24060001 	li	a2,1
80013a88:	3c108001 	lui	s0,0x8001
80013a8c:	ae02673c 	sw	v0,26428(s0)
80013a90:	3c048001 	lui	a0,0x8001
80013a94:	8e456640 	lw	a1,26176(s2)
80013a98:	0c00495e 	jal	80012578 <printf>
80013a9c:	24845e80 	addiu	a0,a0,24192
80013aa0:	8e226728 	lw	v0,26408(s1)
80013aa4:	00000000 	nop
80013aa8:	00021880 	sll	v1,v0,0x2
80013aac:	00021100 	sll	v0,v0,0x4
80013ab0:	00431023 	subu	v0,v0,v1
80013ab4:	24420fff 	addiu	v0,v0,4095
80013ab8:	2403f000 	li	v1,-4096
80013abc:	00433024 	and	a2,v0,v1
80013ac0:	8e03673c 	lw	v1,26428(s0)
80013ac4:	00000000 	nop
80013ac8:	04600008 	bltz	v1,80013aec <mips_vm_init+0xd8>
80013acc:	24020400 	li	v0,1024
80013ad0:	3c048001 	lui	a0,0x8001
80013ad4:	24845e18 	addiu	a0,a0,24088
80013ad8:	240500a5 	li	a1,165
80013adc:	3c068001 	lui	a2,0x8001
80013ae0:	24c65e20 	addiu	a2,a2,24096
80013ae4:	0c00496e 	jal	800125b8 <_panic>
80013ae8:	00603821 	move	a3,v1
80013aec:	afa20010 	sw	v0,16(sp)
80013af0:	02602021 	move	a0,s3
80013af4:	3c057f80 	lui	a1,0x7f80
80013af8:	3c078000 	lui	a3,0x8000
80013afc:	0c004e54 	jal	80013950 <boot_map_segment>
80013b00:	00673821 	addu	a3,v1,a3
80013b04:	3c040003 	lui	a0,0x3
80013b08:	3484c000 	ori	a0,a0,0xc000
80013b0c:	24051000 	li	a1,4096
80013b10:	0c004de7 	jal	8001379c <alloc>
80013b14:	24060001 	li	a2,1
80013b18:	3c038001 	lui	v1,0x8001
80013b1c:	ac626620 	sw	v0,26144(v1)
80013b20:	04400008 	bltz	v0,80013b44 <mips_vm_init+0x130>
80013b24:	00401821 	move	v1,v0
80013b28:	3c048001 	lui	a0,0x8001
80013b2c:	24845e18 	addiu	a0,a0,24088
80013b30:	240500ab 	li	a1,171
80013b34:	3c068001 	lui	a2,0x8001
80013b38:	24c65e20 	addiu	a2,a2,24096
80013b3c:	0c00496e 	jal	800125b8 <_panic>
80013b40:	00403821 	move	a3,v0
80013b44:	24020400 	li	v0,1024
80013b48:	afa20010 	sw	v0,16(sp)
80013b4c:	02602021 	move	a0,s3
80013b50:	3c057f40 	lui	a1,0x7f40
80013b54:	3c060003 	lui	a2,0x3
80013b58:	34c6c000 	ori	a2,a2,0xc000
80013b5c:	3c078000 	lui	a3,0x8000
80013b60:	0c004e54 	jal	80013950 <boot_map_segment>
80013b64:	00673821 	addu	a3,v1,a3
80013b68:	3c048001 	lui	a0,0x8001
80013b6c:	0c00495e 	jal	80012578 <printf>
80013b70:	24845ea0 	addiu	a0,a0,24224
80013b74:	8fbf0028 	lw	ra,40(sp)
80013b78:	8fb30024 	lw	s3,36(sp)
80013b7c:	8fb20020 	lw	s2,32(sp)
80013b80:	8fb1001c 	lw	s1,28(sp)
80013b84:	8fb00018 	lw	s0,24(sp)
80013b88:	03e00008 	jr	ra
80013b8c:	27bd0030 	addiu	sp,sp,48

80013b90 <page_init>:
80013b90:	27bdffe8 	addiu	sp,sp,-24
80013b94:	afbf0010 	sw	ra,16(sp)
80013b98:	3c028001 	lui	v0,0x8001
80013b9c:	ac406644 	sw	zero,26180(v0)
80013ba0:	3c048001 	lui	a0,0x8001
80013ba4:	8c826640 	lw	v0,26176(a0)
80013ba8:	00000000 	nop
80013bac:	24420fff 	addiu	v0,v0,4095
80013bb0:	2403f000 	li	v1,-4096
80013bb4:	00431024 	and	v0,v0,v1
80013bb8:	ac826640 	sw	v0,26176(a0)
80013bbc:	3c028001 	lui	v0,0x8001
80013bc0:	8c46673c 	lw	a2,26428(v0)
80013bc4:	3c028001 	lui	v0,0x8001
80013bc8:	8c426728 	lw	v0,26408(v0)
80013bcc:	00000000 	nop
80013bd0:	14400021 	bnez	v0,80013c58 <page_init+0xc8>
80013bd4:	00002821 	move	a1,zero
80013bd8:	10000019 	b	80013c40 <page_init+0xb0>
80013bdc:	00003821 	move	a3,zero
80013be0:	24020001 	li	v0,1
80013be4:	a4c20008 	sh	v0,8(a2)
80013be8:	24a50001 	addiu	a1,a1,1
80013bec:	3c028001 	lui	v0,0x8001
80013bf0:	8c42673c 	lw	v0,26428(v0)
80013bf4:	00000000 	nop
80013bf8:	00823021 	addu	a2,a0,v0
80013bfc:	00031080 	sll	v0,v1,0x2
80013c00:	00431021 	addu	v0,v0,v1
80013c04:	00021900 	sll	v1,v0,0x4
80013c08:	00431021 	addu	v0,v0,v1
80013c0c:	00021a00 	sll	v1,v0,0x8
80013c10:	00431021 	addu	v0,v0,v1
80013c14:	00021c00 	sll	v1,v0,0x10
80013c18:	00431021 	addu	v0,v0,v1
80013c1c:	00021023 	negu	v0,v0
80013c20:	00023b00 	sll	a3,v0,0xc
80013c24:	00071b02 	srl	v1,a3,0xc
80013c28:	3c028001 	lui	v0,0x8001
80013c2c:	8c426728 	lw	v0,26408(v0)
80013c30:	00000000 	nop
80013c34:	0062102b 	sltu	v0,v1,v0
80013c38:	14400009 	bnez	v0,80013c60 <page_init+0xd0>
80013c3c:	2484000c 	addiu	a0,a0,12
80013c40:	3c048001 	lui	a0,0x8001
80013c44:	248459d0 	addiu	a0,a0,22992
80013c48:	24050030 	li	a1,48
80013c4c:	3c068001 	lui	a2,0x8001
80013c50:	0c00496e 	jal	800125b8 <_panic>
80013c54:	24c659e4 	addiu	a2,a2,23012
80013c58:	00003821 	move	a3,zero
80013c5c:	2404000c 	li	a0,12
80013c60:	3c028000 	lui	v0,0x8000
80013c64:	00e21021 	addu	v0,a3,v0
80013c68:	3c038001 	lui	v1,0x8001
80013c6c:	8c636640 	lw	v1,26176(v1)
80013c70:	00000000 	nop
80013c74:	0043102b 	sltu	v0,v0,v1
80013c78:	1440ffd9 	bnez	v0,80013be0 <page_init+0x50>
80013c7c:	00041883 	sra	v1,a0,0x2
80013c80:	10000024 	b	80013d14 <page_init+0x184>
80013c84:	3c028001 	lui	v0,0x8001
80013c88:	00804021 	move	t0,a0
80013c8c:	3c068001 	lui	a2,0x8001
80013c90:	8cc2673c 	lw	v0,26428(a2)
80013c94:	00000000 	nop
80013c98:	00441021 	addu	v0,v0,a0
80013c9c:	a4400008 	sh	zero,8(v0)
80013ca0:	3c078001 	lui	a3,0x8001
80013ca4:	8ce36644 	lw	v1,26180(a3)
80013ca8:	8cc2673c 	lw	v0,26428(a2)
80013cac:	00000000 	nop
80013cb0:	00441021 	addu	v0,v0,a0
80013cb4:	10600006 	beqz	v1,80013cd0 <page_init+0x140>
80013cb8:	ac430000 	sw	v1,0(v0)
80013cbc:	8ce36644 	lw	v1,26180(a3)
80013cc0:	8cc2673c 	lw	v0,26428(a2)
80013cc4:	00000000 	nop
80013cc8:	00821021 	addu	v0,a0,v0
80013ccc:	ac620004 	sw	v0,4(v1)
80013cd0:	3c028001 	lui	v0,0x8001
80013cd4:	8c43673c 	lw	v1,26428(v0)
80013cd8:	00000000 	nop
80013cdc:	01031821 	addu	v1,t0,v1
80013ce0:	3c028001 	lui	v0,0x8001
80013ce4:	ac436644 	sw	v1,26180(v0)
80013ce8:	24426644 	addiu	v0,v0,26180
80013cec:	ac620004 	sw	v0,4(v1)
80013cf0:	24a50001 	addiu	a1,a1,1
80013cf4:	3c028001 	lui	v0,0x8001
80013cf8:	8c426728 	lw	v0,26408(v0)
80013cfc:	00000000 	nop
80013d00:	00a2102b 	sltu	v0,a1,v0
80013d04:	1040000b 	beqz	v0,80013d34 <page_init+0x1a4>
80013d08:	2484000c 	addiu	a0,a0,12
80013d0c:	1000ffdf 	b	80013c8c <page_init+0xfc>
80013d10:	00804021 	move	t0,a0
80013d14:	8c426728 	lw	v0,26408(v0)
80013d18:	00000000 	nop
80013d1c:	00a2102b 	sltu	v0,a1,v0
80013d20:	10400004 	beqz	v0,80013d34 <page_init+0x1a4>
80013d24:	00051880 	sll	v1,a1,0x2
80013d28:	00051100 	sll	v0,a1,0x4
80013d2c:	1000ffd6 	b	80013c88 <page_init+0xf8>
80013d30:	00432023 	subu	a0,v0,v1
80013d34:	8fbf0010 	lw	ra,16(sp)
80013d38:	00000000 	nop
80013d3c:	03e00008 	jr	ra
80013d40:	27bd0018 	addiu	sp,sp,24

80013d44 <page_alloc>:
80013d44:	27bdffe0 	addiu	sp,sp,-32
80013d48:	afbf0018 	sw	ra,24(sp)
80013d4c:	afb10014 	sw	s1,20(sp)
80013d50:	afb00010 	sw	s0,16(sp)
80013d54:	3c028001 	lui	v0,0x8001
80013d58:	8c506644 	lw	s0,26180(v0)
80013d5c:	00000000 	nop
80013d60:	16000003 	bnez	s0,80013d70 <page_alloc+0x2c>
80013d64:	00808821 	move	s1,a0
80013d68:	1000002d 	b	80013e20 <page_alloc+0xdc>
80013d6c:	2402fffc 	li	v0,-4
80013d70:	8e030000 	lw	v1,0(s0)
80013d74:	00000000 	nop
80013d78:	10600004 	beqz	v1,80013d8c <page_alloc+0x48>
80013d7c:	00000000 	nop
80013d80:	8e020004 	lw	v0,4(s0)
80013d84:	00000000 	nop
80013d88:	ac620004 	sw	v0,4(v1)
80013d8c:	8e030004 	lw	v1,4(s0)
80013d90:	8e020000 	lw	v0,0(s0)
80013d94:	00000000 	nop
80013d98:	ac620000 	sw	v0,0(v1)
80013d9c:	3c028001 	lui	v0,0x8001
80013da0:	8c43673c 	lw	v1,26428(v0)
80013da4:	00000000 	nop
80013da8:	02031823 	subu	v1,s0,v1
80013dac:	00031883 	sra	v1,v1,0x2
80013db0:	00031080 	sll	v0,v1,0x2
80013db4:	00431021 	addu	v0,v0,v1
80013db8:	00021900 	sll	v1,v0,0x4
80013dbc:	00431021 	addu	v0,v0,v1
80013dc0:	00021a00 	sll	v1,v0,0x8
80013dc4:	00431021 	addu	v0,v0,v1
80013dc8:	00021c00 	sll	v1,v0,0x10
80013dcc:	00431021 	addu	v0,v0,v1
80013dd0:	00021023 	negu	v0,v0
80013dd4:	00023b00 	sll	a3,v0,0xc
80013dd8:	00071302 	srl	v0,a3,0xc
80013ddc:	3c038001 	lui	v1,0x8001
80013de0:	8c636728 	lw	v1,26408(v1)
80013de4:	00000000 	nop
80013de8:	0043102b 	sltu	v0,v0,v1
80013dec:	14400007 	bnez	v0,80013e0c <page_alloc+0xc8>
80013df0:	3c048000 	lui	a0,0x8000
80013df4:	3c048001 	lui	a0,0x8001
80013df8:	248459d0 	addiu	a0,a0,22992
80013dfc:	24050030 	li	a1,48
80013e00:	3c068001 	lui	a2,0x8001
80013e04:	0c00496e 	jal	800125b8 <_panic>
80013e08:	24c659e4 	addiu	a2,a2,23012
80013e0c:	00e42021 	addu	a0,a3,a0
80013e10:	0c004059 	jal	80010164 <bzero>
80013e14:	24051000 	li	a1,4096
80013e18:	ae300000 	sw	s0,0(s1)
80013e1c:	00001021 	move	v0,zero
80013e20:	8fbf0018 	lw	ra,24(sp)
80013e24:	8fb10014 	lw	s1,20(sp)
80013e28:	8fb00010 	lw	s0,16(sp)
80013e2c:	03e00008 	jr	ra
80013e30:	27bd0020 	addiu	sp,sp,32

80013e34 <page_free>:
80013e34:	94820008 	lhu	v0,8(a0)
80013e38:	00000000 	nop
80013e3c:	1440000c 	bnez	v0,80013e70 <page_free+0x3c>
80013e40:	3c038001 	lui	v1,0x8001
80013e44:	8c626644 	lw	v0,26180(v1)
80013e48:	00000000 	nop
80013e4c:	10400004 	beqz	v0,80013e60 <page_free+0x2c>
80013e50:	ac820000 	sw	v0,0(a0)
80013e54:	8c626644 	lw	v0,26180(v1)
80013e58:	00000000 	nop
80013e5c:	ac440004 	sw	a0,4(v0)
80013e60:	3c028001 	lui	v0,0x8001
80013e64:	ac446644 	sw	a0,26180(v0)
80013e68:	24426644 	addiu	v0,v0,26180
80013e6c:	ac820004 	sw	v0,4(a0)
80013e70:	03e00008 	jr	ra
80013e74:	00000000 	nop

80013e78 <pgdir_walk>:
80013e78:	27bdffd8 	addiu	sp,sp,-40
80013e7c:	afbf0024 	sw	ra,36(sp)
80013e80:	afb20020 	sw	s2,32(sp)
80013e84:	afb1001c 	sw	s1,28(sp)
80013e88:	afb00018 	sw	s0,24(sp)
80013e8c:	00a08821 	move	s1,a1
80013e90:	00051582 	srl	v0,a1,0x16
80013e94:	00021080 	sll	v0,v0,0x2
80013e98:	00448021 	addu	s0,v0,a0
80013e9c:	8e020000 	lw	v0,0(s0)
80013ea0:	00000000 	nop
80013ea4:	30420200 	andi	v0,v0,0x200
80013ea8:	14400022 	bnez	v0,80013f34 <pgdir_walk+0xbc>
80013eac:	00e09021 	move	s2,a3
80013eb0:	24020001 	li	v0,1
80013eb4:	14c2001c 	bne	a2,v0,80013f28 <pgdir_walk+0xb0>
80013eb8:	00000000 	nop
80013ebc:	0c004f51 	jal	80013d44 <page_alloc>
80013ec0:	27a40010 	addiu	a0,sp,16
80013ec4:	14400031 	bnez	v0,80013f8c <pgdir_walk+0x114>
80013ec8:	2402fffc 	li	v0,-4
80013ecc:	8fa40010 	lw	a0,16(sp)
80013ed0:	3c028001 	lui	v0,0x8001
80013ed4:	8c43673c 	lw	v1,26428(v0)
80013ed8:	00000000 	nop
80013edc:	00831823 	subu	v1,a0,v1
80013ee0:	00031883 	sra	v1,v1,0x2
80013ee4:	00031080 	sll	v0,v1,0x2
80013ee8:	00431021 	addu	v0,v0,v1
80013eec:	00021900 	sll	v1,v0,0x4
80013ef0:	00431021 	addu	v0,v0,v1
80013ef4:	00021a00 	sll	v1,v0,0x8
80013ef8:	00431021 	addu	v0,v0,v1
80013efc:	00021c00 	sll	v1,v0,0x10
80013f00:	00431021 	addu	v0,v0,v1
80013f04:	00021023 	negu	v0,v0
80013f08:	00021300 	sll	v0,v0,0xc
80013f0c:	34420600 	ori	v0,v0,0x600
80013f10:	ae020000 	sw	v0,0(s0)
80013f14:	94820008 	lhu	v0,8(a0)
80013f18:	00000000 	nop
80013f1c:	24420001 	addiu	v0,v0,1
80013f20:	10000004 	b	80013f34 <pgdir_walk+0xbc>
80013f24:	a4820008 	sh	v0,8(a0)
80013f28:	ace00000 	sw	zero,0(a3)
80013f2c:	10000017 	b	80013f8c <pgdir_walk+0x114>
80013f30:	00001021 	move	v0,zero
80013f34:	8e030000 	lw	v1,0(s0)
80013f38:	2402f000 	li	v0,-4096
80013f3c:	00623824 	and	a3,v1,v0
80013f40:	00071302 	srl	v0,a3,0xc
80013f44:	3c038001 	lui	v1,0x8001
80013f48:	8c636728 	lw	v1,26408(v1)
80013f4c:	00000000 	nop
80013f50:	0043102b 	sltu	v0,v0,v1
80013f54:	14400007 	bnez	v0,80013f74 <pgdir_walk+0xfc>
80013f58:	3c038000 	lui	v1,0x8000
80013f5c:	3c048001 	lui	a0,0x8001
80013f60:	24845e18 	addiu	a0,a0,24088
80013f64:	24050130 	li	a1,304
80013f68:	3c068001 	lui	a2,0x8001
80013f6c:	0c00496e 	jal	800125b8 <_panic>
80013f70:	24c659e4 	addiu	a2,a2,23012
80013f74:	00e31821 	addu	v1,a3,v1
80013f78:	00111282 	srl	v0,s1,0xa
80013f7c:	30420ffc 	andi	v0,v0,0xffc
80013f80:	00621821 	addu	v1,v1,v0
80013f84:	ae430000 	sw	v1,0(s2)
80013f88:	00001021 	move	v0,zero
80013f8c:	8fbf0024 	lw	ra,36(sp)
80013f90:	8fb20020 	lw	s2,32(sp)
80013f94:	8fb1001c 	lw	s1,28(sp)
80013f98:	8fb00018 	lw	s0,24(sp)
80013f9c:	03e00008 	jr	ra
80013fa0:	27bd0028 	addiu	sp,sp,40

80013fa4 <page_insert>:
80013fa4:	27bdffd0 	addiu	sp,sp,-48
80013fa8:	afbf0028 	sw	ra,40(sp)
80013fac:	afb30024 	sw	s3,36(sp)
80013fb0:	afb20020 	sw	s2,32(sp)
80013fb4:	afb1001c 	sw	s1,28(sp)
80013fb8:	afb00018 	sw	s0,24(sp)
80013fbc:	00808821 	move	s1,a0
80013fc0:	00a09021 	move	s2,a1
80013fc4:	00c08021 	move	s0,a2
80013fc8:	34f30200 	ori	s3,a3,0x200
80013fcc:	00c02821 	move	a1,a2
80013fd0:	00003021 	move	a2,zero
80013fd4:	0c004f9e 	jal	80013e78 <pgdir_walk>
80013fd8:	27a70010 	addiu	a3,sp,16
80013fdc:	8fa20010 	lw	v0,16(sp)
80013fe0:	00000000 	nop
80013fe4:	10400035 	beqz	v0,800140bc <page_insert+0x118>
80013fe8:	02202021 	move	a0,s1
80013fec:	8c470000 	lw	a3,0(v0)
80013ff0:	00000000 	nop
80013ff4:	30e20200 	andi	v0,a3,0x200
80013ff8:	10400030 	beqz	v0,800140bc <page_insert+0x118>
80013ffc:	3c028001 	lui	v0,0x8001
80014000:	00072302 	srl	a0,a3,0xc
80014004:	8c426728 	lw	v0,26408(v0)
80014008:	00000000 	nop
8001400c:	0082102b 	sltu	v0,a0,v0
80014010:	14400007 	bnez	v0,80014030 <page_insert+0x8c>
80014014:	00041880 	sll	v1,a0,0x2
80014018:	3c048001 	lui	a0,0x8001
8001401c:	248459d0 	addiu	a0,a0,22992
80014020:	24050029 	li	a1,41
80014024:	3c068001 	lui	a2,0x8001
80014028:	0c00496e 	jal	800125b8 <_panic>
8001402c:	24c65aa4 	addiu	a2,a2,23204
80014030:	00041100 	sll	v0,a0,0x4
80014034:	00431023 	subu	v0,v0,v1
80014038:	3c038001 	lui	v1,0x8001
8001403c:	8c63673c 	lw	v1,26428(v1)
80014040:	00000000 	nop
80014044:	00431021 	addu	v0,v0,v1
80014048:	12420005 	beq	s2,v0,80014060 <page_insert+0xbc>
8001404c:	02202021 	move	a0,s1
80014050:	0c00508e 	jal	80014238 <page_remove>
80014054:	02002821 	move	a1,s0
80014058:	10000018 	b	800140bc <page_insert+0x118>
8001405c:	02202021 	move	a0,s1
80014060:	0c0050ab 	jal	800142ac <tlb_invalidate>
80014064:	02002821 	move	a1,s0
80014068:	3c028001 	lui	v0,0x8001
8001406c:	8c43673c 	lw	v1,26428(v0)
80014070:	00000000 	nop
80014074:	02431823 	subu	v1,s2,v1
80014078:	00031883 	sra	v1,v1,0x2
8001407c:	00031080 	sll	v0,v1,0x2
80014080:	00431021 	addu	v0,v0,v1
80014084:	00021900 	sll	v1,v0,0x4
80014088:	00431021 	addu	v0,v0,v1
8001408c:	00021a00 	sll	v1,v0,0x8
80014090:	00431021 	addu	v0,v0,v1
80014094:	00021c00 	sll	v1,v0,0x10
80014098:	00431021 	addu	v0,v0,v1
8001409c:	00021023 	negu	v0,v0
800140a0:	00021300 	sll	v0,v0,0xc
800140a4:	02621025 	or	v0,s3,v0
800140a8:	8fa30010 	lw	v1,16(sp)
800140ac:	00000000 	nop
800140b0:	ac620000 	sw	v0,0(v1)
800140b4:	10000022 	b	80014140 <page_insert+0x19c>
800140b8:	00001021 	move	v0,zero
800140bc:	0c0050ab 	jal	800142ac <tlb_invalidate>
800140c0:	02002821 	move	a1,s0
800140c4:	02202021 	move	a0,s1
800140c8:	02002821 	move	a1,s0
800140cc:	24060001 	li	a2,1
800140d0:	0c004f9e 	jal	80013e78 <pgdir_walk>
800140d4:	27a70010 	addiu	a3,sp,16
800140d8:	14400019 	bnez	v0,80014140 <page_insert+0x19c>
800140dc:	2402fffc 	li	v0,-4
800140e0:	3c028001 	lui	v0,0x8001
800140e4:	8c43673c 	lw	v1,26428(v0)
800140e8:	00000000 	nop
800140ec:	02431823 	subu	v1,s2,v1
800140f0:	00031883 	sra	v1,v1,0x2
800140f4:	00031080 	sll	v0,v1,0x2
800140f8:	00431021 	addu	v0,v0,v1
800140fc:	00021900 	sll	v1,v0,0x4
80014100:	00431021 	addu	v0,v0,v1
80014104:	00021a00 	sll	v1,v0,0x8
80014108:	00431021 	addu	v0,v0,v1
8001410c:	00021c00 	sll	v1,v0,0x10
80014110:	00431021 	addu	v0,v0,v1
80014114:	00021023 	negu	v0,v0
80014118:	00021300 	sll	v0,v0,0xc
8001411c:	02621025 	or	v0,s3,v0
80014120:	8fa30010 	lw	v1,16(sp)
80014124:	00000000 	nop
80014128:	ac620000 	sw	v0,0(v1)
8001412c:	96420008 	lhu	v0,8(s2)
80014130:	00000000 	nop
80014134:	24420001 	addiu	v0,v0,1
80014138:	a6420008 	sh	v0,8(s2)
8001413c:	00001021 	move	v0,zero
80014140:	8fbf0028 	lw	ra,40(sp)
80014144:	8fb30024 	lw	s3,36(sp)
80014148:	8fb20020 	lw	s2,32(sp)
8001414c:	8fb1001c 	lw	s1,28(sp)
80014150:	8fb00018 	lw	s0,24(sp)
80014154:	03e00008 	jr	ra
80014158:	27bd0030 	addiu	sp,sp,48

8001415c <page_lookup>:
8001415c:	27bdffe0 	addiu	sp,sp,-32
80014160:	afbf001c 	sw	ra,28(sp)
80014164:	afb00018 	sw	s0,24(sp)
80014168:	00c08021 	move	s0,a2
8001416c:	00003021 	move	a2,zero
80014170:	0c004f9e 	jal	80013e78 <pgdir_walk>
80014174:	27a70010 	addiu	a3,sp,16
80014178:	8fa40010 	lw	a0,16(sp)
8001417c:	00000000 	nop
80014180:	1080001b 	beqz	a0,800141f0 <page_lookup+0x94>
80014184:	00001021 	move	v0,zero
80014188:	8c870000 	lw	a3,0(a0)
8001418c:	00000000 	nop
80014190:	30e20200 	andi	v0,a3,0x200
80014194:	10400015 	beqz	v0,800141ec <page_lookup+0x90>
80014198:	00072b02 	srl	a1,a3,0xc
8001419c:	3c028001 	lui	v0,0x8001
800141a0:	8c426728 	lw	v0,26408(v0)
800141a4:	00000000 	nop
800141a8:	00a2102b 	sltu	v0,a1,v0
800141ac:	14400007 	bnez	v0,800141cc <page_lookup+0x70>
800141b0:	00051880 	sll	v1,a1,0x2
800141b4:	3c048001 	lui	a0,0x8001
800141b8:	248459d0 	addiu	a0,a0,22992
800141bc:	24050029 	li	a1,41
800141c0:	3c068001 	lui	a2,0x8001
800141c4:	0c00496e 	jal	800125b8 <_panic>
800141c8:	24c65aa4 	addiu	a2,a2,23204
800141cc:	00051100 	sll	v0,a1,0x4
800141d0:	00431023 	subu	v0,v0,v1
800141d4:	3c038001 	lui	v1,0x8001
800141d8:	8c63673c 	lw	v1,26428(v1)
800141dc:	12000004 	beqz	s0,800141f0 <page_lookup+0x94>
800141e0:	00431021 	addu	v0,v0,v1
800141e4:	10000002 	b	800141f0 <page_lookup+0x94>
800141e8:	ae040000 	sw	a0,0(s0)
800141ec:	00001021 	move	v0,zero
800141f0:	8fbf001c 	lw	ra,28(sp)
800141f4:	8fb00018 	lw	s0,24(sp)
800141f8:	03e00008 	jr	ra
800141fc:	27bd0020 	addiu	sp,sp,32

80014200 <page_decref>:
80014200:	27bdffe8 	addiu	sp,sp,-24
80014204:	afbf0010 	sw	ra,16(sp)
80014208:	94820008 	lhu	v0,8(a0)
8001420c:	00000000 	nop
80014210:	2442ffff 	addiu	v0,v0,-1
80014214:	3042ffff 	andi	v0,v0,0xffff
80014218:	14400003 	bnez	v0,80014228 <page_decref+0x28>
8001421c:	a4820008 	sh	v0,8(a0)
80014220:	0c004f8d 	jal	80013e34 <page_free>
80014224:	00000000 	nop
80014228:	8fbf0010 	lw	ra,16(sp)
8001422c:	00000000 	nop
80014230:	03e00008 	jr	ra
80014234:	27bd0018 	addiu	sp,sp,24

80014238 <page_remove>:
80014238:	27bdffd8 	addiu	sp,sp,-40
8001423c:	afbf0020 	sw	ra,32(sp)
80014240:	afb1001c 	sw	s1,28(sp)
80014244:	afb00018 	sw	s0,24(sp)
80014248:	00808021 	move	s0,a0
8001424c:	00a08821 	move	s1,a1
80014250:	0c005057 	jal	8001415c <page_lookup>
80014254:	27a60010 	addiu	a2,sp,16
80014258:	1040000f 	beqz	v0,80014298 <page_remove+0x60>
8001425c:	00402021 	move	a0,v0
80014260:	94420008 	lhu	v0,8(v0)
80014264:	00000000 	nop
80014268:	2442ffff 	addiu	v0,v0,-1
8001426c:	3042ffff 	andi	v0,v0,0xffff
80014270:	14400003 	bnez	v0,80014280 <page_remove+0x48>
80014274:	a4820008 	sh	v0,8(a0)
80014278:	0c004f8d 	jal	80013e34 <page_free>
8001427c:	00000000 	nop
80014280:	8fa20010 	lw	v0,16(sp)
80014284:	00000000 	nop
80014288:	ac400000 	sw	zero,0(v0)
8001428c:	02002021 	move	a0,s0
80014290:	0c0050ab 	jal	800142ac <tlb_invalidate>
80014294:	02202821 	move	a1,s1
80014298:	8fbf0020 	lw	ra,32(sp)
8001429c:	8fb1001c 	lw	s1,28(sp)
800142a0:	8fb00018 	lw	s0,24(sp)
800142a4:	03e00008 	jr	ra
800142a8:	27bd0028 	addiu	sp,sp,40

800142ac <tlb_invalidate>:
800142ac:	27bdffe8 	addiu	sp,sp,-24
800142b0:	afbf0010 	sw	ra,16(sp)
800142b4:	3c028001 	lui	v0,0x8001
800142b8:	8c436624 	lw	v1,26148(v0)
800142bc:	00000000 	nop
800142c0:	1060000a 	beqz	v1,800142ec <tlb_invalidate+0x40>
800142c4:	2402f000 	li	v0,-4096
800142c8:	00a21024 	and	v0,a1,v0
800142cc:	8c6400a4 	lw	a0,164(v1)
800142d0:	00000000 	nop
800142d4:	000422c2 	srl	a0,a0,0xb
800142d8:	00042180 	sll	a0,a0,0x6
800142dc:	0c005628 	jal	800158a0 <tlb_out>
800142e0:	00442025 	or	a0,v0,a0
800142e4:	10000004 	b	800142f8 <tlb_invalidate+0x4c>
800142e8:	00000000 	nop
800142ec:	2404f000 	li	a0,-4096
800142f0:	0c005628 	jal	800158a0 <tlb_out>
800142f4:	00a42024 	and	a0,a1,a0
800142f8:	8fbf0010 	lw	ra,16(sp)
800142fc:	00000000 	nop
80014300:	03e00008 	jr	ra
80014304:	27bd0018 	addiu	sp,sp,24

80014308 <physical_memory_manage_check>:
80014308:	27bdff78 	addiu	sp,sp,-136
8001430c:	afbf0080 	sw	ra,128(sp)
80014310:	afb1007c 	sw	s1,124(sp)
80014314:	afb00078 	sw	s0,120(sp)
80014318:	afa0001c 	sw	zero,28(sp)
8001431c:	afa00018 	sw	zero,24(sp)
80014320:	afa00014 	sw	zero,20(sp)
80014324:	0c004f51 	jal	80013d44 <page_alloc>
80014328:	27a40014 	addiu	a0,sp,20
8001432c:	10400008 	beqz	v0,80014350 <physical_memory_manage_check+0x48>
80014330:	3c048001 	lui	a0,0x8001
80014334:	24845e18 	addiu	a0,a0,24088
80014338:	240501c5 	li	a1,453
8001433c:	3c068001 	lui	a2,0x8001
80014340:	24c65adc 	addiu	a2,a2,23260
80014344:	3c078001 	lui	a3,0x8001
80014348:	0c00496e 	jal	800125b8 <_panic>
8001434c:	24e75ec0 	addiu	a3,a3,24256
80014350:	0c004f51 	jal	80013d44 <page_alloc>
80014354:	27a40018 	addiu	a0,sp,24
80014358:	10400008 	beqz	v0,8001437c <physical_memory_manage_check+0x74>
8001435c:	3c048001 	lui	a0,0x8001
80014360:	24845e18 	addiu	a0,a0,24088
80014364:	240501c6 	li	a1,454
80014368:	3c068001 	lui	a2,0x8001
8001436c:	24c65adc 	addiu	a2,a2,23260
80014370:	3c078001 	lui	a3,0x8001
80014374:	0c00496e 	jal	800125b8 <_panic>
80014378:	24e75ed8 	addiu	a3,a3,24280
8001437c:	0c004f51 	jal	80013d44 <page_alloc>
80014380:	27a4001c 	addiu	a0,sp,28
80014384:	10400008 	beqz	v0,800143a8 <physical_memory_manage_check+0xa0>
80014388:	3c048001 	lui	a0,0x8001
8001438c:	24845e18 	addiu	a0,a0,24088
80014390:	240501c7 	li	a1,455
80014394:	3c068001 	lui	a2,0x8001
80014398:	24c65adc 	addiu	a2,a2,23260
8001439c:	3c078001 	lui	a3,0x8001
800143a0:	0c00496e 	jal	800125b8 <_panic>
800143a4:	24e75ef0 	addiu	a3,a3,24304
800143a8:	8fa40014 	lw	a0,20(sp)
800143ac:	00000000 	nop
800143b0:	14800008 	bnez	a0,800143d4 <physical_memory_manage_check+0xcc>
800143b4:	240501c9 	li	a1,457
800143b8:	3c048001 	lui	a0,0x8001
800143bc:	24845e18 	addiu	a0,a0,24088
800143c0:	3c068001 	lui	a2,0x8001
800143c4:	24c65adc 	addiu	a2,a2,23260
800143c8:	3c078001 	lui	a3,0x8001
800143cc:	0c00496e 	jal	800125b8 <_panic>
800143d0:	24e75f38 	addiu	a3,a3,24376
800143d4:	8fa30018 	lw	v1,24(sp)
800143d8:	00000000 	nop
800143dc:	10600003 	beqz	v1,800143ec <physical_memory_manage_check+0xe4>
800143e0:	00000000 	nop
800143e4:	14830009 	bne	a0,v1,8001440c <physical_memory_manage_check+0x104>
800143e8:	00000000 	nop
800143ec:	3c048001 	lui	a0,0x8001
800143f0:	24845e18 	addiu	a0,a0,24088
800143f4:	240501ca 	li	a1,458
800143f8:	3c068001 	lui	a2,0x8001
800143fc:	24c65adc 	addiu	a2,a2,23260
80014400:	3c078001 	lui	a3,0x8001
80014404:	0c00496e 	jal	800125b8 <_panic>
80014408:	24e75f08 	addiu	a3,a3,24328
8001440c:	8fa2001c 	lw	v0,28(sp)
80014410:	00000000 	nop
80014414:	10400005 	beqz	v0,8001442c <physical_memory_manage_check+0x124>
80014418:	00000000 	nop
8001441c:	10620003 	beq	v1,v0,8001442c <physical_memory_manage_check+0x124>
80014420:	00000000 	nop
80014424:	14820009 	bne	a0,v0,8001444c <physical_memory_manage_check+0x144>
80014428:	3c028001 	lui	v0,0x8001
8001442c:	3c048001 	lui	a0,0x8001
80014430:	24845e18 	addiu	a0,a0,24088
80014434:	240501cb 	li	a1,459
80014438:	3c068001 	lui	a2,0x8001
8001443c:	24c65adc 	addiu	a2,a2,23260
80014440:	3c078001 	lui	a3,0x8001
80014444:	0c00496e 	jal	800125b8 <_panic>
80014448:	24e75f1c 	addiu	a3,a3,24348
8001444c:	8c516644 	lw	s1,26180(v0)
80014450:	ac406644 	sw	zero,26180(v0)
80014454:	0c004f51 	jal	80013d44 <page_alloc>
80014458:	27a40010 	addiu	a0,sp,16
8001445c:	2403fffc 	li	v1,-4
80014460:	10430009 	beq	v0,v1,80014488 <physical_memory_manage_check+0x180>
80014464:	3c028001 	lui	v0,0x8001
80014468:	3c048001 	lui	a0,0x8001
8001446c:	24845e18 	addiu	a0,a0,24088
80014470:	240501d4 	li	a1,468
80014474:	3c068001 	lui	a2,0x8001
80014478:	24c65adc 	addiu	a2,a2,23260
8001447c:	3c078001 	lui	a3,0x8001
80014480:	0c00496e 	jal	800125b8 <_panic>
80014484:	24e75f3c 	addiu	a3,a3,24380
80014488:	8c42673c 	lw	v0,26428(v0)
8001448c:	8fa30014 	lw	v1,20(sp)
80014490:	00000000 	nop
80014494:	00621823 	subu	v1,v1,v0
80014498:	00031883 	sra	v1,v1,0x2
8001449c:	00031080 	sll	v0,v1,0x2
800144a0:	00431021 	addu	v0,v0,v1
800144a4:	00021900 	sll	v1,v0,0x4
800144a8:	00431021 	addu	v0,v0,v1
800144ac:	00021a00 	sll	v1,v0,0x8
800144b0:	00431021 	addu	v0,v0,v1
800144b4:	00021c00 	sll	v1,v0,0x10
800144b8:	00431021 	addu	v0,v0,v1
800144bc:	00021023 	negu	v0,v0
800144c0:	00023b00 	sll	a3,v0,0xc
800144c4:	00071302 	srl	v0,a3,0xc
800144c8:	3c038001 	lui	v1,0x8001
800144cc:	8c636728 	lw	v1,26408(v1)
800144d0:	00000000 	nop
800144d4:	0043102b 	sltu	v0,v0,v1
800144d8:	14400007 	bnez	v0,800144f8 <physical_memory_manage_check+0x1f0>
800144dc:	3c028000 	lui	v0,0x8000
800144e0:	3c048001 	lui	a0,0x8001
800144e4:	248459d0 	addiu	a0,a0,22992
800144e8:	24050030 	li	a1,48
800144ec:	3c068001 	lui	a2,0x8001
800144f0:	0c00496e 	jal	800125b8 <_panic>
800144f4:	24c659e4 	addiu	a2,a2,23012
800144f8:	00e28021 	addu	s0,a3,v0
800144fc:	240203e8 	li	v0,1000
80014500:	ae020000 	sw	v0,0(s0)
80014504:	8fa40014 	lw	a0,20(sp)
80014508:	0c004f8d 	jal	80013e34 <page_free>
8001450c:	00000000 	nop
80014510:	3c048001 	lui	a0,0x8001
80014514:	8e050000 	lw	a1,0(s0)
80014518:	0c00495e 	jal	80012578 <printf>
8001451c:	24845f5c 	addiu	a0,a0,24412
80014520:	0c004f51 	jal	80013d44 <page_alloc>
80014524:	27a40014 	addiu	a0,sp,20
80014528:	10400008 	beqz	v0,8001454c <physical_memory_manage_check+0x244>
8001452c:	3c048001 	lui	a0,0x8001
80014530:	24845e18 	addiu	a0,a0,24088
80014534:	240501de 	li	a1,478
80014538:	3c068001 	lui	a2,0x8001
8001453c:	24c65adc 	addiu	a2,a2,23260
80014540:	3c078001 	lui	a3,0x8001
80014544:	0c00496e 	jal	800125b8 <_panic>
80014548:	24e75ec0 	addiu	a3,a3,24256
8001454c:	8fa40014 	lw	a0,20(sp)
80014550:	00000000 	nop
80014554:	14800009 	bnez	a0,8001457c <physical_memory_manage_check+0x274>
80014558:	3c028001 	lui	v0,0x8001
8001455c:	3c048001 	lui	a0,0x8001
80014560:	24845e18 	addiu	a0,a0,24088
80014564:	240501df 	li	a1,479
80014568:	3c068001 	lui	a2,0x8001
8001456c:	24c65adc 	addiu	a2,a2,23260
80014570:	3c078001 	lui	a3,0x8001
80014574:	0c00496e 	jal	800125b8 <_panic>
80014578:	24e75f38 	addiu	a3,a3,24376
8001457c:	8c43673c 	lw	v1,26428(v0)
80014580:	00000000 	nop
80014584:	00831823 	subu	v1,a0,v1
80014588:	00031883 	sra	v1,v1,0x2
8001458c:	00031080 	sll	v0,v1,0x2
80014590:	00431021 	addu	v0,v0,v1
80014594:	00021900 	sll	v1,v0,0x4
80014598:	00431021 	addu	v0,v0,v1
8001459c:	00021a00 	sll	v1,v0,0x8
800145a0:	00431021 	addu	v0,v0,v1
800145a4:	00021c00 	sll	v1,v0,0x10
800145a8:	00431021 	addu	v0,v0,v1
800145ac:	00021023 	negu	v0,v0
800145b0:	00023b00 	sll	a3,v0,0xc
800145b4:	00071302 	srl	v0,a3,0xc
800145b8:	3c038001 	lui	v1,0x8001
800145bc:	8c636728 	lw	v1,26408(v1)
800145c0:	00000000 	nop
800145c4:	0043102b 	sltu	v0,v0,v1
800145c8:	14400007 	bnez	v0,800145e8 <physical_memory_manage_check+0x2e0>
800145cc:	3c028000 	lui	v0,0x8000
800145d0:	3c048001 	lui	a0,0x8001
800145d4:	248459d0 	addiu	a0,a0,22992
800145d8:	24050030 	li	a1,48
800145dc:	3c068001 	lui	a2,0x8001
800145e0:	0c00496e 	jal	800125b8 <_panic>
800145e4:	24c659e4 	addiu	a2,a2,23012
800145e8:	00e21021 	addu	v0,a3,v0
800145ec:	12020008 	beq	s0,v0,80014610 <physical_memory_manage_check+0x308>
800145f0:	240501e2 	li	a1,482
800145f4:	3c048001 	lui	a0,0x8001
800145f8:	24845e18 	addiu	a0,a0,24088
800145fc:	3c068001 	lui	a2,0x8001
80014600:	24c65adc 	addiu	a2,a2,23260
80014604:	3c078001 	lui	a3,0x8001
80014608:	0c00496e 	jal	800125b8 <_panic>
8001460c:	24e75f80 	addiu	a3,a3,24448
80014610:	8e020000 	lw	v0,0(s0)
80014614:	00000000 	nop
80014618:	10400009 	beqz	v0,80014640 <physical_memory_manage_check+0x338>
8001461c:	3c028001 	lui	v0,0x8001
80014620:	3c048001 	lui	a0,0x8001
80014624:	24845e18 	addiu	a0,a0,24088
80014628:	240501e4 	li	a1,484
8001462c:	3c068001 	lui	a2,0x8001
80014630:	24c65adc 	addiu	a2,a2,23260
80014634:	3c078001 	lui	a3,0x8001
80014638:	0c00496e 	jal	800125b8 <_panic>
8001463c:	24e75f9c 	addiu	a3,a3,24476
80014640:	0c004f8d 	jal	80013e34 <page_free>
80014644:	ac516644 	sw	s1,26180(v0)
80014648:	8fa40018 	lw	a0,24(sp)
8001464c:	0c004f8d 	jal	80013e34 <page_free>
80014650:	00000000 	nop
80014654:	8fa4001c 	lw	a0,28(sp)
80014658:	0c004f8d 	jal	80013e34 <page_free>
8001465c:	00000000 	nop
80014660:	24040078 	li	a0,120
80014664:	24051000 	li	a1,4096
80014668:	0c004de7 	jal	8001379c <alloc>
8001466c:	24060001 	li	a2,1
80014670:	00408021 	move	s0,v0
80014674:	afa00020 	sw	zero,32(sp)
80014678:	00402021 	move	a0,v0
8001467c:	00003021 	move	a2,zero
80014680:	27a80020 	addiu	t0,sp,32
80014684:	2407000a 	li	a3,10
80014688:	a4860008 	sh	a2,8(a0)
8001468c:	8fa30020 	lw	v1,32(sp)
80014690:	00000000 	nop
80014694:	14600006 	bnez	v1,800146b0 <physical_memory_manage_check+0x3a8>
80014698:	00802821 	move	a1,a0
8001469c:	ac800000 	sw	zero,0(a0)
800146a0:	afa40020 	sw	a0,32(sp)
800146a4:	1000000e 	b	800146e0 <physical_memory_manage_check+0x3d8>
800146a8:	ac880004 	sw	t0,4(a0)
800146ac:	00401821 	move	v1,v0
800146b0:	8c620000 	lw	v0,0(v1)
800146b4:	00000000 	nop
800146b8:	1440fffc 	bnez	v0,800146ac <physical_memory_manage_check+0x3a4>
800146bc:	00000000 	nop
800146c0:	ac800000 	sw	zero,0(a0)
800146c4:	8c620000 	lw	v0,0(v1)
800146c8:	00000000 	nop
800146cc:	10400002 	beqz	v0,800146d8 <physical_memory_manage_check+0x3d0>
800146d0:	00000000 	nop
800146d4:	ac450004 	sw	a1,4(v0)
800146d8:	ac650000 	sw	a1,0(v1)
800146dc:	ac830004 	sw	v1,4(a0)
800146e0:	24c60001 	addiu	a2,a2,1
800146e4:	14c7ffe8 	bne	a2,a3,80014688 <physical_memory_manage_check+0x380>
800146e8:	2484000c 	addiu	a0,a0,12
800146ec:	8fa70020 	lw	a3,32(sp)
800146f0:	3c028001 	lui	v0,0x8001
800146f4:	244665ec 	addiu	a2,v0,26092
800146f8:	27a80024 	addiu	t0,sp,36
800146fc:	24c90020 	addiu	t1,a2,32
80014700:	8cc20000 	lw	v0,0(a2)
80014704:	8cc30004 	lw	v1,4(a2)
80014708:	8cc40008 	lw	a0,8(a2)
8001470c:	8cc5000c 	lw	a1,12(a2)
80014710:	ad020000 	sw	v0,0(t0)
80014714:	ad030004 	sw	v1,4(t0)
80014718:	ad040008 	sw	a0,8(t0)
8001471c:	ad05000c 	sw	a1,12(t0)
80014720:	24c60010 	addiu	a2,a2,16
80014724:	14c9fff6 	bne	a2,t1,80014700 <physical_memory_manage_check+0x3f8>
80014728:	25080010 	addiu	t0,t0,16
8001472c:	8cc20000 	lw	v0,0(a2)
80014730:	8cc30004 	lw	v1,4(a2)
80014734:	ad020000 	sw	v0,0(t0)
80014738:	14e00009 	bnez	a3,80014760 <physical_memory_manage_check+0x458>
8001473c:	ad030004 	sw	v1,4(t0)
80014740:	3c048001 	lui	a0,0x8001
80014744:	24845e18 	addiu	a0,a0,24088
80014748:	240501fb 	li	a1,507
8001474c:	3c068001 	lui	a2,0x8001
80014750:	24c65adc 	addiu	a2,a2,23260
80014754:	3c078001 	lui	a3,0x8001
80014758:	0c00496e 	jal	800125b8 <_panic>
8001475c:	24e75fa8 	addiu	a3,a3,24488
80014760:	27a40024 	addiu	a0,sp,36
80014764:	94e30008 	lhu	v1,8(a3)
80014768:	8c820000 	lw	v0,0(a0)
8001476c:	00000000 	nop
80014770:	10620008 	beq	v1,v0,80014794 <physical_memory_manage_check+0x48c>
80014774:	24050200 	li	a1,512
80014778:	3c048001 	lui	a0,0x8001
8001477c:	24845e18 	addiu	a0,a0,24088
80014780:	3c068001 	lui	a2,0x8001
80014784:	24c65adc 	addiu	a2,a2,23260
80014788:	3c078001 	lui	a3,0x8001
8001478c:	0c00496e 	jal	800125b8 <_panic>
80014790:	24e75fb0 	addiu	a3,a3,24496
80014794:	8ce70000 	lw	a3,0(a3)
80014798:	00000000 	nop
8001479c:	14e0fff1 	bnez	a3,80014764 <physical_memory_manage_check+0x45c>
800147a0:	24840004 	addiu	a0,a0,4
800147a4:	3c028001 	lui	v0,0x8001
800147a8:	244665c0 	addiu	a2,v0,26048
800147ac:	27a7004c 	addiu	a3,sp,76
800147b0:	24c80020 	addiu	t0,a2,32
800147b4:	8cc20000 	lw	v0,0(a2)
800147b8:	8cc30004 	lw	v1,4(a2)
800147bc:	8cc40008 	lw	a0,8(a2)
800147c0:	8cc5000c 	lw	a1,12(a2)
800147c4:	ace20000 	sw	v0,0(a3)
800147c8:	ace30004 	sw	v1,4(a3)
800147cc:	ace40008 	sw	a0,8(a3)
800147d0:	ace5000c 	sw	a1,12(a3)
800147d4:	24c60010 	addiu	a2,a2,16
800147d8:	14c8fff6 	bne	a2,t0,800147b4 <physical_memory_manage_check+0x4ac>
800147dc:	24e70010 	addiu	a3,a3,16
800147e0:	8cc20000 	lw	v0,0(a2)
800147e4:	8cc30004 	lw	v1,4(a2)
800147e8:	8cc40008 	lw	a0,8(a2)
800147ec:	ace20000 	sw	v0,0(a3)
800147f0:	ace30004 	sw	v1,4(a3)
800147f4:	ace40008 	sw	a0,8(a3)
800147f8:	2404000c 	li	a0,12
800147fc:	24051000 	li	a1,4096
80014800:	0c004de7 	jal	8001379c <alloc>
80014804:	24060001 	li	a2,1
80014808:	00401821 	move	v1,v0
8001480c:	24020014 	li	v0,20
80014810:	a4620008 	sh	v0,8(v1)
80014814:	8e020030 	lw	v0,48(s0)
80014818:	00000000 	nop
8001481c:	ac620000 	sw	v0,0(v1)
80014820:	8e020030 	lw	v0,48(s0)
80014824:	00000000 	nop
80014828:	10400002 	beqz	v0,80014834 <physical_memory_manage_check+0x52c>
8001482c:	26040030 	addiu	a0,s0,48
80014830:	ac430004 	sw	v1,4(v0)
80014834:	ac830000 	sw	v1,0(a0)
80014838:	ac640004 	sw	a0,4(v1)
8001483c:	8fb00020 	lw	s0,32(sp)
80014840:	3c048001 	lui	a0,0x8001
80014844:	0c00495e 	jal	80012578 <printf>
80014848:	24845fc8 	addiu	a0,a0,24520
8001484c:	1600001d 	bnez	s0,800148c4 <physical_memory_manage_check+0x5bc>
80014850:	3c048001 	lui	a0,0x8001
80014854:	10000014 	b	800148a8 <physical_memory_manage_check+0x5a0>
80014858:	00000000 	nop
8001485c:	8c830000 	lw	v1,0(a0)
80014860:	96020008 	lhu	v0,8(s0)
80014864:	00000000 	nop
80014868:	1062000a 	beq	v1,v0,80014894 <physical_memory_manage_check+0x58c>
8001486c:	24840004 	addiu	a0,a0,4
80014870:	3c048001 	lui	a0,0x8001
80014874:	24845e18 	addiu	a0,a0,24088
80014878:	24050212 	li	a1,530
8001487c:	3c068001 	lui	a2,0x8001
80014880:	24c65adc 	addiu	a2,a2,23260
80014884:	3c078001 	lui	a3,0x8001
80014888:	0c00496e 	jal	800125b8 <_panic>
8001488c:	24e75fd4 	addiu	a3,a3,24532
80014890:	27a40050 	addiu	a0,sp,80
80014894:	8e100000 	lw	s0,0(s0)
80014898:	00000000 	nop
8001489c:	1600ffef 	bnez	s0,8001485c <physical_memory_manage_check+0x554>
800148a0:	00000000 	nop
800148a4:	3c048001 	lui	a0,0x8001
800148a8:	0c00495e 	jal	80012578 <printf>
800148ac:	24845fec 	addiu	a0,a0,24556
800148b0:	8fbf0080 	lw	ra,128(sp)
800148b4:	8fb1007c 	lw	s1,124(sp)
800148b8:	8fb00078 	lw	s0,120(sp)
800148bc:	03e00008 	jr	ra
800148c0:	27bd0088 	addiu	sp,sp,136
800148c4:	96030008 	lhu	v1,8(s0)
800148c8:	8fa2004c 	lw	v0,76(sp)
800148cc:	00000000 	nop
800148d0:	1043ffef 	beq	v0,v1,80014890 <physical_memory_manage_check+0x588>
800148d4:	3c048001 	lui	a0,0x8001
800148d8:	1000ffe7 	b	80014878 <physical_memory_manage_check+0x570>
800148dc:	24845e18 	addiu	a0,a0,24088

800148e0 <page_check>:
800148e0:	27bdffd0 	addiu	sp,sp,-48
800148e4:	afbf0028 	sw	ra,40(sp)
800148e8:	afb10024 	sw	s1,36(sp)
800148ec:	afb00020 	sw	s0,32(sp)
800148f0:	afa0001c 	sw	zero,28(sp)
800148f4:	afa00018 	sw	zero,24(sp)
800148f8:	afa00014 	sw	zero,20(sp)
800148fc:	0c004f51 	jal	80013d44 <page_alloc>
80014900:	27a40014 	addiu	a0,sp,20
80014904:	10400008 	beqz	v0,80014928 <page_check+0x48>
80014908:	3c048001 	lui	a0,0x8001
8001490c:	24845e18 	addiu	a0,a0,24088
80014910:	24050224 	li	a1,548
80014914:	3c068001 	lui	a2,0x8001
80014918:	24c65adc 	addiu	a2,a2,23260
8001491c:	3c078001 	lui	a3,0x8001
80014920:	0c00496e 	jal	800125b8 <_panic>
80014924:	24e75ec0 	addiu	a3,a3,24256
80014928:	0c004f51 	jal	80013d44 <page_alloc>
8001492c:	27a40018 	addiu	a0,sp,24
80014930:	10400008 	beqz	v0,80014954 <page_check+0x74>
80014934:	3c048001 	lui	a0,0x8001
80014938:	24845e18 	addiu	a0,a0,24088
8001493c:	24050225 	li	a1,549
80014940:	3c068001 	lui	a2,0x8001
80014944:	24c65adc 	addiu	a2,a2,23260
80014948:	3c078001 	lui	a3,0x8001
8001494c:	0c00496e 	jal	800125b8 <_panic>
80014950:	24e75ed8 	addiu	a3,a3,24280
80014954:	0c004f51 	jal	80013d44 <page_alloc>
80014958:	27a4001c 	addiu	a0,sp,28
8001495c:	10400008 	beqz	v0,80014980 <page_check+0xa0>
80014960:	3c048001 	lui	a0,0x8001
80014964:	24845e18 	addiu	a0,a0,24088
80014968:	24050226 	li	a1,550
8001496c:	3c068001 	lui	a2,0x8001
80014970:	24c65adc 	addiu	a2,a2,23260
80014974:	3c078001 	lui	a3,0x8001
80014978:	0c00496e 	jal	800125b8 <_panic>
8001497c:	24e75ef0 	addiu	a3,a3,24304
80014980:	8fa40014 	lw	a0,20(sp)
80014984:	00000000 	nop
80014988:	14800008 	bnez	a0,800149ac <page_check+0xcc>
8001498c:	24050228 	li	a1,552
80014990:	3c048001 	lui	a0,0x8001
80014994:	24845e18 	addiu	a0,a0,24088
80014998:	3c068001 	lui	a2,0x8001
8001499c:	24c65adc 	addiu	a2,a2,23260
800149a0:	3c078001 	lui	a3,0x8001
800149a4:	0c00496e 	jal	800125b8 <_panic>
800149a8:	24e75f38 	addiu	a3,a3,24376
800149ac:	8fa30018 	lw	v1,24(sp)
800149b0:	00000000 	nop
800149b4:	10600003 	beqz	v1,800149c4 <page_check+0xe4>
800149b8:	00000000 	nop
800149bc:	14830009 	bne	a0,v1,800149e4 <page_check+0x104>
800149c0:	00000000 	nop
800149c4:	3c048001 	lui	a0,0x8001
800149c8:	24845e18 	addiu	a0,a0,24088
800149cc:	24050229 	li	a1,553
800149d0:	3c068001 	lui	a2,0x8001
800149d4:	24c65adc 	addiu	a2,a2,23260
800149d8:	3c078001 	lui	a3,0x8001
800149dc:	0c00496e 	jal	800125b8 <_panic>
800149e0:	24e75f08 	addiu	a3,a3,24328
800149e4:	8fa2001c 	lw	v0,28(sp)
800149e8:	00000000 	nop
800149ec:	10400005 	beqz	v0,80014a04 <page_check+0x124>
800149f0:	00000000 	nop
800149f4:	10620003 	beq	v1,v0,80014a04 <page_check+0x124>
800149f8:	00000000 	nop
800149fc:	14820009 	bne	a0,v0,80014a24 <page_check+0x144>
80014a00:	3c028001 	lui	v0,0x8001
80014a04:	3c048001 	lui	a0,0x8001
80014a08:	24845e18 	addiu	a0,a0,24088
80014a0c:	2405022a 	li	a1,554
80014a10:	3c068001 	lui	a2,0x8001
80014a14:	24c65adc 	addiu	a2,a2,23260
80014a18:	3c078001 	lui	a3,0x8001
80014a1c:	0c00496e 	jal	800125b8 <_panic>
80014a20:	24e75f1c 	addiu	a3,a3,24348
80014a24:	8c516644 	lw	s1,26180(v0)
80014a28:	ac406644 	sw	zero,26180(v0)
80014a2c:	0c004f51 	jal	80013d44 <page_alloc>
80014a30:	27a40010 	addiu	a0,sp,16
80014a34:	2403fffc 	li	v1,-4
80014a38:	10430009 	beq	v0,v1,80014a60 <page_check+0x180>
80014a3c:	3c028001 	lui	v0,0x8001
80014a40:	3c048001 	lui	a0,0x8001
80014a44:	24845e18 	addiu	a0,a0,24088
80014a48:	24050232 	li	a1,562
80014a4c:	3c068001 	lui	a2,0x8001
80014a50:	24c65adc 	addiu	a2,a2,23260
80014a54:	3c078001 	lui	a3,0x8001
80014a58:	0c00496e 	jal	800125b8 <_panic>
80014a5c:	24e75f3c 	addiu	a3,a3,24380
80014a60:	8c44672c 	lw	a0,26412(v0)
80014a64:	8fa50018 	lw	a1,24(sp)
80014a68:	00003021 	move	a2,zero
80014a6c:	0c004fe9 	jal	80013fa4 <page_insert>
80014a70:	00003821 	move	a3,zero
80014a74:	04400008 	bltz	v0,80014a98 <page_check+0x1b8>
80014a78:	3c048001 	lui	a0,0x8001
80014a7c:	24845e18 	addiu	a0,a0,24088
80014a80:	24050235 	li	a1,565
80014a84:	3c068001 	lui	a2,0x8001
80014a88:	24c65adc 	addiu	a2,a2,23260
80014a8c:	3c078001 	lui	a3,0x8001
80014a90:	0c00496e 	jal	800125b8 <_panic>
80014a94:	24e76018 	addiu	a3,a3,24600
80014a98:	8fa40014 	lw	a0,20(sp)
80014a9c:	0c004f8d 	jal	80013e34 <page_free>
80014aa0:	00000000 	nop
80014aa4:	3c028001 	lui	v0,0x8001
80014aa8:	8c44672c 	lw	a0,26412(v0)
80014aac:	8fa50018 	lw	a1,24(sp)
80014ab0:	00003021 	move	a2,zero
80014ab4:	0c004fe9 	jal	80013fa4 <page_insert>
80014ab8:	00003821 	move	a3,zero
80014abc:	10400009 	beqz	v0,80014ae4 <page_check+0x204>
80014ac0:	3c028001 	lui	v0,0x8001
80014ac4:	3c048001 	lui	a0,0x8001
80014ac8:	24845e18 	addiu	a0,a0,24088
80014acc:	2405023a 	li	a1,570
80014ad0:	3c068001 	lui	a2,0x8001
80014ad4:	24c65adc 	addiu	a2,a2,23260
80014ad8:	3c078001 	lui	a3,0x8001
80014adc:	0c00496e 	jal	800125b8 <_panic>
80014ae0:	24e76044 	addiu	a3,a3,24644
80014ae4:	8c42672c 	lw	v0,26412(v0)
80014ae8:	00000000 	nop
80014aec:	8c440000 	lw	a0,0(v0)
80014af0:	2402f000 	li	v0,-4096
80014af4:	00823824 	and	a3,a0,v0
80014af8:	3c028001 	lui	v0,0x8001
80014afc:	8c42673c 	lw	v0,26428(v0)
80014b00:	8fa30014 	lw	v1,20(sp)
80014b04:	00000000 	nop
80014b08:	00621823 	subu	v1,v1,v0
80014b0c:	00031883 	sra	v1,v1,0x2
80014b10:	00031080 	sll	v0,v1,0x2
80014b14:	00431021 	addu	v0,v0,v1
80014b18:	00021900 	sll	v1,v0,0x4
80014b1c:	00431021 	addu	v0,v0,v1
80014b20:	00021a00 	sll	v1,v0,0x8
80014b24:	00431021 	addu	v0,v0,v1
80014b28:	00021c00 	sll	v1,v0,0x10
80014b2c:	00431021 	addu	v0,v0,v1
80014b30:	00021023 	negu	v0,v0
80014b34:	00021300 	sll	v0,v0,0xc
80014b38:	10e20009 	beq	a3,v0,80014b60 <page_check+0x280>
80014b3c:	30820200 	andi	v0,a0,0x200
80014b40:	3c048001 	lui	a0,0x8001
80014b44:	24845e18 	addiu	a0,a0,24088
80014b48:	2405023b 	li	a1,571
80014b4c:	3c068001 	lui	a2,0x8001
80014b50:	24c65adc 	addiu	a2,a2,23260
80014b54:	3c078001 	lui	a3,0x8001
80014b58:	0c00496e 	jal	800125b8 <_panic>
80014b5c:	24e76070 	addiu	a3,a3,24688
80014b60:	10400015 	beqz	v0,80014bb8 <page_check+0x2d8>
80014b64:	00071302 	srl	v0,a3,0xc
80014b68:	3c038001 	lui	v1,0x8001
80014b6c:	8c636728 	lw	v1,26408(v1)
80014b70:	00000000 	nop
80014b74:	0043102b 	sltu	v0,v0,v1
80014b78:	14400007 	bnez	v0,80014b98 <page_check+0x2b8>
80014b7c:	3c028000 	lui	v0,0x8000
80014b80:	3c048001 	lui	a0,0x8001
80014b84:	248459d0 	addiu	a0,a0,22992
80014b88:	2405003c 	li	a1,60
80014b8c:	3c068001 	lui	a2,0x8001
80014b90:	0c00496e 	jal	800125b8 <_panic>
80014b94:	24c659e4 	addiu	a2,a2,23012
80014b98:	00e21021 	addu	v0,a3,v0
80014b9c:	8c450000 	lw	a1,0(v0)
80014ba0:	00000000 	nop
80014ba4:	30a20200 	andi	v0,a1,0x200
80014ba8:	10400003 	beqz	v0,80014bb8 <page_check+0x2d8>
80014bac:	2402f000 	li	v0,-4096
80014bb0:	10000002 	b	80014bbc <page_check+0x2dc>
80014bb4:	00a22824 	and	a1,a1,v0
80014bb8:	2405ffff 	li	a1,-1
80014bbc:	3c048001 	lui	a0,0x8001
80014bc0:	0c00495e 	jal	80012578 <printf>
80014bc4:	24846098 	addiu	a0,a0,24728
80014bc8:	3c028001 	lui	v0,0x8001
80014bcc:	8c43673c 	lw	v1,26428(v0)
80014bd0:	8fa20018 	lw	v0,24(sp)
80014bd4:	00000000 	nop
80014bd8:	00431023 	subu	v0,v0,v1
80014bdc:	00021083 	sra	v0,v0,0x2
80014be0:	00022880 	sll	a1,v0,0x2
80014be4:	00a22821 	addu	a1,a1,v0
80014be8:	00051100 	sll	v0,a1,0x4
80014bec:	00a22821 	addu	a1,a1,v0
80014bf0:	00051200 	sll	v0,a1,0x8
80014bf4:	00a22821 	addu	a1,a1,v0
80014bf8:	00051400 	sll	v0,a1,0x10
80014bfc:	00a22821 	addu	a1,a1,v0
80014c00:	00052823 	negu	a1,a1
80014c04:	3c048001 	lui	a0,0x8001
80014c08:	248460b8 	addiu	a0,a0,24760
80014c0c:	0c00495e 	jal	80012578 <printf>
80014c10:	00052b00 	sll	a1,a1,0xc
80014c14:	3c028001 	lui	v0,0x8001
80014c18:	8c44672c 	lw	a0,26412(v0)
80014c1c:	00000000 	nop
80014c20:	8c870000 	lw	a3,0(a0)
80014c24:	00000000 	nop
80014c28:	30e20200 	andi	v0,a3,0x200
80014c2c:	10400017 	beqz	v0,80014c8c <page_check+0x3ac>
80014c30:	2402f000 	li	v0,-4096
80014c34:	00e23824 	and	a3,a3,v0
80014c38:	00071302 	srl	v0,a3,0xc
80014c3c:	3c038001 	lui	v1,0x8001
80014c40:	8c636728 	lw	v1,26408(v1)
80014c44:	00000000 	nop
80014c48:	0043102b 	sltu	v0,v0,v1
80014c4c:	14400007 	bnez	v0,80014c6c <page_check+0x38c>
80014c50:	3c028000 	lui	v0,0x8000
80014c54:	3c048001 	lui	a0,0x8001
80014c58:	248459d0 	addiu	a0,a0,22992
80014c5c:	2405003c 	li	a1,60
80014c60:	3c068001 	lui	a2,0x8001
80014c64:	0c00496e 	jal	800125b8 <_panic>
80014c68:	24c659e4 	addiu	a2,a2,23012
80014c6c:	00e21021 	addu	v0,a3,v0
80014c70:	8c470000 	lw	a3,0(v0)
80014c74:	00000000 	nop
80014c78:	30e20200 	andi	v0,a3,0x200
80014c7c:	10400003 	beqz	v0,80014c8c <page_check+0x3ac>
80014c80:	2402f000 	li	v0,-4096
80014c84:	10000002 	b	80014c90 <page_check+0x3b0>
80014c88:	00e23824 	and	a3,a3,v0
80014c8c:	2407ffff 	li	a3,-1
80014c90:	8fa50018 	lw	a1,24(sp)
80014c94:	3c028001 	lui	v0,0x8001
80014c98:	8c43673c 	lw	v1,26428(v0)
80014c9c:	00000000 	nop
80014ca0:	00a31823 	subu	v1,a1,v1
80014ca4:	00031883 	sra	v1,v1,0x2
80014ca8:	00031080 	sll	v0,v1,0x2
80014cac:	00431021 	addu	v0,v0,v1
80014cb0:	00021900 	sll	v1,v0,0x4
80014cb4:	00431021 	addu	v0,v0,v1
80014cb8:	00021a00 	sll	v1,v0,0x8
80014cbc:	00431021 	addu	v0,v0,v1
80014cc0:	00021c00 	sll	v1,v0,0x10
80014cc4:	00431021 	addu	v0,v0,v1
80014cc8:	00021023 	negu	v0,v0
80014ccc:	00021300 	sll	v0,v0,0xc
80014cd0:	10e20009 	beq	a3,v0,80014cf8 <page_check+0x418>
80014cd4:	24020001 	li	v0,1
80014cd8:	3c048001 	lui	a0,0x8001
80014cdc:	24845e18 	addiu	a0,a0,24088
80014ce0:	24050240 	li	a1,576
80014ce4:	3c068001 	lui	a2,0x8001
80014ce8:	24c65adc 	addiu	a2,a2,23260
80014cec:	3c078001 	lui	a3,0x8001
80014cf0:	0c00496e 	jal	800125b8 <_panic>
80014cf4:	24e760cc 	addiu	a3,a3,24780
80014cf8:	94a30008 	lhu	v1,8(a1)
80014cfc:	00000000 	nop
80014d00:	10620009 	beq	v1,v0,80014d28 <page_check+0x448>
80014d04:	24061000 	li	a2,4096
80014d08:	3c048001 	lui	a0,0x8001
80014d0c:	24845e18 	addiu	a0,a0,24088
80014d10:	24050241 	li	a1,577
80014d14:	3c068001 	lui	a2,0x8001
80014d18:	24c65adc 	addiu	a2,a2,23260
80014d1c:	3c078001 	lui	a3,0x8001
80014d20:	0c00496e 	jal	800125b8 <_panic>
80014d24:	24e760f4 	addiu	a3,a3,24820
80014d28:	8fa5001c 	lw	a1,28(sp)
80014d2c:	0c004fe9 	jal	80013fa4 <page_insert>
80014d30:	00003821 	move	a3,zero
80014d34:	10400009 	beqz	v0,80014d5c <page_check+0x47c>
80014d38:	3c028001 	lui	v0,0x8001
80014d3c:	3c048001 	lui	a0,0x8001
80014d40:	24845e18 	addiu	a0,a0,24088
80014d44:	24050244 	li	a1,580
80014d48:	3c068001 	lui	a2,0x8001
80014d4c:	24c65adc 	addiu	a2,a2,23260
80014d50:	3c078001 	lui	a3,0x8001
80014d54:	0c00496e 	jal	800125b8 <_panic>
80014d58:	24e76108 	addiu	a3,a3,24840
80014d5c:	8c42672c 	lw	v0,26412(v0)
80014d60:	00000000 	nop
80014d64:	8c470000 	lw	a3,0(v0)
80014d68:	00000000 	nop
80014d6c:	30e20200 	andi	v0,a3,0x200
80014d70:	10400017 	beqz	v0,80014dd0 <page_check+0x4f0>
80014d74:	2402f000 	li	v0,-4096
80014d78:	00e23824 	and	a3,a3,v0
80014d7c:	00071302 	srl	v0,a3,0xc
80014d80:	3c038001 	lui	v1,0x8001
80014d84:	8c636728 	lw	v1,26408(v1)
80014d88:	00000000 	nop
80014d8c:	0043102b 	sltu	v0,v0,v1
80014d90:	14400007 	bnez	v0,80014db0 <page_check+0x4d0>
80014d94:	3c028000 	lui	v0,0x8000
80014d98:	3c048001 	lui	a0,0x8001
80014d9c:	248459d0 	addiu	a0,a0,22992
80014da0:	2405003c 	li	a1,60
80014da4:	3c068001 	lui	a2,0x8001
80014da8:	0c00496e 	jal	800125b8 <_panic>
80014dac:	24c659e4 	addiu	a2,a2,23012
80014db0:	00e21021 	addu	v0,a3,v0
80014db4:	8c470004 	lw	a3,4(v0)
80014db8:	00000000 	nop
80014dbc:	30e20200 	andi	v0,a3,0x200
80014dc0:	10400003 	beqz	v0,80014dd0 <page_check+0x4f0>
80014dc4:	2402f000 	li	v0,-4096
80014dc8:	10000002 	b	80014dd4 <page_check+0x4f4>
80014dcc:	00e23824 	and	a3,a3,v0
80014dd0:	2407ffff 	li	a3,-1
80014dd4:	8fa4001c 	lw	a0,28(sp)
80014dd8:	3c028001 	lui	v0,0x8001
80014ddc:	8c43673c 	lw	v1,26428(v0)
80014de0:	00000000 	nop
80014de4:	00831823 	subu	v1,a0,v1
80014de8:	00031883 	sra	v1,v1,0x2
80014dec:	00031080 	sll	v0,v1,0x2
80014df0:	00431021 	addu	v0,v0,v1
80014df4:	00021900 	sll	v1,v0,0x4
80014df8:	00431021 	addu	v0,v0,v1
80014dfc:	00021a00 	sll	v1,v0,0x8
80014e00:	00431021 	addu	v0,v0,v1
80014e04:	00021c00 	sll	v1,v0,0x10
80014e08:	00431021 	addu	v0,v0,v1
80014e0c:	00021023 	negu	v0,v0
80014e10:	00021300 	sll	v0,v0,0xc
80014e14:	10e20009 	beq	a3,v0,80014e3c <page_check+0x55c>
80014e18:	24020001 	li	v0,1
80014e1c:	3c048001 	lui	a0,0x8001
80014e20:	24845e18 	addiu	a0,a0,24088
80014e24:	24050245 	li	a1,581
80014e28:	3c068001 	lui	a2,0x8001
80014e2c:	24c65adc 	addiu	a2,a2,23260
80014e30:	3c078001 	lui	a3,0x8001
80014e34:	0c00496e 	jal	800125b8 <_panic>
80014e38:	24e76134 	addiu	a3,a3,24884
80014e3c:	94830008 	lhu	v1,8(a0)
80014e40:	00000000 	nop
80014e44:	10620008 	beq	v1,v0,80014e68 <page_check+0x588>
80014e48:	3c048001 	lui	a0,0x8001
80014e4c:	24845e18 	addiu	a0,a0,24088
80014e50:	24050246 	li	a1,582
80014e54:	3c068001 	lui	a2,0x8001
80014e58:	24c65adc 	addiu	a2,a2,23260
80014e5c:	3c078001 	lui	a3,0x8001
80014e60:	0c00496e 	jal	800125b8 <_panic>
80014e64:	24e76160 	addiu	a3,a3,24928
80014e68:	0c004f51 	jal	80013d44 <page_alloc>
80014e6c:	27a40010 	addiu	a0,sp,16
80014e70:	2403fffc 	li	v1,-4
80014e74:	10430008 	beq	v0,v1,80014e98 <page_check+0x5b8>
80014e78:	24050249 	li	a1,585
80014e7c:	3c048001 	lui	a0,0x8001
80014e80:	24845e18 	addiu	a0,a0,24088
80014e84:	3c068001 	lui	a2,0x8001
80014e88:	24c65adc 	addiu	a2,a2,23260
80014e8c:	3c078001 	lui	a3,0x8001
80014e90:	0c00496e 	jal	800125b8 <_panic>
80014e94:	24e75f3c 	addiu	a3,a3,24380
80014e98:	3c048001 	lui	a0,0x8001
80014e9c:	0c00495e 	jal	80012578 <printf>
80014ea0:	24846174 	addiu	a0,a0,24948
80014ea4:	3c028001 	lui	v0,0x8001
80014ea8:	8c44672c 	lw	a0,26412(v0)
80014eac:	8fa5001c 	lw	a1,28(sp)
80014eb0:	24061000 	li	a2,4096
80014eb4:	0c004fe9 	jal	80013fa4 <page_insert>
80014eb8:	00003821 	move	a3,zero
80014ebc:	10400009 	beqz	v0,80014ee4 <page_check+0x604>
80014ec0:	3c028001 	lui	v0,0x8001
80014ec4:	3c048001 	lui	a0,0x8001
80014ec8:	24845e18 	addiu	a0,a0,24088
80014ecc:	2405024d 	li	a1,589
80014ed0:	3c068001 	lui	a2,0x8001
80014ed4:	24c65adc 	addiu	a2,a2,23260
80014ed8:	3c078001 	lui	a3,0x8001
80014edc:	0c00496e 	jal	800125b8 <_panic>
80014ee0:	24e76108 	addiu	a3,a3,24840
80014ee4:	8c42672c 	lw	v0,26412(v0)
80014ee8:	00000000 	nop
80014eec:	8c470000 	lw	a3,0(v0)
80014ef0:	00000000 	nop
80014ef4:	30e20200 	andi	v0,a3,0x200
80014ef8:	10400017 	beqz	v0,80014f58 <page_check+0x678>
80014efc:	2402f000 	li	v0,-4096
80014f00:	00e23824 	and	a3,a3,v0
80014f04:	00071302 	srl	v0,a3,0xc
80014f08:	3c038001 	lui	v1,0x8001
80014f0c:	8c636728 	lw	v1,26408(v1)
80014f10:	00000000 	nop
80014f14:	0043102b 	sltu	v0,v0,v1
80014f18:	14400007 	bnez	v0,80014f38 <page_check+0x658>
80014f1c:	3c028000 	lui	v0,0x8000
80014f20:	3c048001 	lui	a0,0x8001
80014f24:	248459d0 	addiu	a0,a0,22992
80014f28:	2405003c 	li	a1,60
80014f2c:	3c068001 	lui	a2,0x8001
80014f30:	0c00496e 	jal	800125b8 <_panic>
80014f34:	24c659e4 	addiu	a2,a2,23012
80014f38:	00e21021 	addu	v0,a3,v0
80014f3c:	8c470004 	lw	a3,4(v0)
80014f40:	00000000 	nop
80014f44:	30e20200 	andi	v0,a3,0x200
80014f48:	10400003 	beqz	v0,80014f58 <page_check+0x678>
80014f4c:	2402f000 	li	v0,-4096
80014f50:	10000002 	b	80014f5c <page_check+0x67c>
80014f54:	00e23824 	and	a3,a3,v0
80014f58:	2407ffff 	li	a3,-1
80014f5c:	8fa4001c 	lw	a0,28(sp)
80014f60:	3c028001 	lui	v0,0x8001
80014f64:	8c43673c 	lw	v1,26428(v0)
80014f68:	00000000 	nop
80014f6c:	00831823 	subu	v1,a0,v1
80014f70:	00031883 	sra	v1,v1,0x2
80014f74:	00031080 	sll	v0,v1,0x2
80014f78:	00431021 	addu	v0,v0,v1
80014f7c:	00021900 	sll	v1,v0,0x4
80014f80:	00431021 	addu	v0,v0,v1
80014f84:	00021a00 	sll	v1,v0,0x8
80014f88:	00431021 	addu	v0,v0,v1
80014f8c:	00021c00 	sll	v1,v0,0x10
80014f90:	00431021 	addu	v0,v0,v1
80014f94:	00021023 	negu	v0,v0
80014f98:	00021300 	sll	v0,v0,0xc
80014f9c:	10e20009 	beq	a3,v0,80014fc4 <page_check+0x6e4>
80014fa0:	24020001 	li	v0,1
80014fa4:	3c048001 	lui	a0,0x8001
80014fa8:	24845e18 	addiu	a0,a0,24088
80014fac:	2405024e 	li	a1,590
80014fb0:	3c068001 	lui	a2,0x8001
80014fb4:	24c65adc 	addiu	a2,a2,23260
80014fb8:	3c078001 	lui	a3,0x8001
80014fbc:	0c00496e 	jal	800125b8 <_panic>
80014fc0:	24e76134 	addiu	a3,a3,24884
80014fc4:	94830008 	lhu	v1,8(a0)
80014fc8:	00000000 	nop
80014fcc:	10620008 	beq	v1,v0,80014ff0 <page_check+0x710>
80014fd0:	3c048001 	lui	a0,0x8001
80014fd4:	24845e18 	addiu	a0,a0,24088
80014fd8:	2405024f 	li	a1,591
80014fdc:	3c068001 	lui	a2,0x8001
80014fe0:	24c65adc 	addiu	a2,a2,23260
80014fe4:	3c078001 	lui	a3,0x8001
80014fe8:	0c00496e 	jal	800125b8 <_panic>
80014fec:	24e76160 	addiu	a3,a3,24928
80014ff0:	0c004f51 	jal	80013d44 <page_alloc>
80014ff4:	27a40010 	addiu	a0,sp,16
80014ff8:	2403fffc 	li	v1,-4
80014ffc:	10430009 	beq	v0,v1,80015024 <page_check+0x744>
80015000:	3c028001 	lui	v0,0x8001
80015004:	3c048001 	lui	a0,0x8001
80015008:	24845e18 	addiu	a0,a0,24088
8001500c:	24050253 	li	a1,595
80015010:	3c068001 	lui	a2,0x8001
80015014:	24c65adc 	addiu	a2,a2,23260
80015018:	3c078001 	lui	a3,0x8001
8001501c:	0c00496e 	jal	800125b8 <_panic>
80015020:	24e75f3c 	addiu	a3,a3,24380
80015024:	8c44672c 	lw	a0,26412(v0)
80015028:	8fa50014 	lw	a1,20(sp)
8001502c:	3c060040 	lui	a2,0x40
80015030:	0c004fe9 	jal	80013fa4 <page_insert>
80015034:	00003821 	move	a3,zero
80015038:	04400009 	bltz	v0,80015060 <page_check+0x780>
8001503c:	3c028001 	lui	v0,0x8001
80015040:	3c048001 	lui	a0,0x8001
80015044:	24845e18 	addiu	a0,a0,24088
80015048:	24050256 	li	a1,598
8001504c:	3c068001 	lui	a2,0x8001
80015050:	24c65adc 	addiu	a2,a2,23260
80015054:	3c078001 	lui	a3,0x8001
80015058:	0c00496e 	jal	800125b8 <_panic>
8001505c:	24e76188 	addiu	a3,a3,24968
80015060:	8c44672c 	lw	a0,26412(v0)
80015064:	8fa50018 	lw	a1,24(sp)
80015068:	24061000 	li	a2,4096
8001506c:	0c004fe9 	jal	80013fa4 <page_insert>
80015070:	00003821 	move	a3,zero
80015074:	10400009 	beqz	v0,8001509c <page_check+0x7bc>
80015078:	3c028001 	lui	v0,0x8001
8001507c:	3c048001 	lui	a0,0x8001
80015080:	24845e18 	addiu	a0,a0,24088
80015084:	24050259 	li	a1,601
80015088:	3c068001 	lui	a2,0x8001
8001508c:	24c65adc 	addiu	a2,a2,23260
80015090:	3c078001 	lui	a3,0x8001
80015094:	0c00496e 	jal	800125b8 <_panic>
80015098:	24e761b4 	addiu	a3,a3,25012
8001509c:	8c42672c 	lw	v0,26412(v0)
800150a0:	00000000 	nop
800150a4:	8c450000 	lw	a1,0(v0)
800150a8:	00000000 	nop
800150ac:	00051242 	srl	v0,a1,0x9
800150b0:	30460001 	andi	a2,v0,0x1
800150b4:	10c00019 	beqz	a2,8001511c <page_check+0x83c>
800150b8:	2404ffff 	li	a0,-1
800150bc:	2402f000 	li	v0,-4096
800150c0:	00a23824 	and	a3,a1,v0
800150c4:	00071302 	srl	v0,a3,0xc
800150c8:	3c038001 	lui	v1,0x8001
800150cc:	8c636728 	lw	v1,26408(v1)
800150d0:	00000000 	nop
800150d4:	0043102b 	sltu	v0,v0,v1
800150d8:	14400007 	bnez	v0,800150f8 <page_check+0x818>
800150dc:	3c028000 	lui	v0,0x8000
800150e0:	3c048001 	lui	a0,0x8001
800150e4:	248459d0 	addiu	a0,a0,22992
800150e8:	2405003c 	li	a1,60
800150ec:	3c068001 	lui	a2,0x8001
800150f0:	0c00496e 	jal	800125b8 <_panic>
800150f4:	24c659e4 	addiu	a2,a2,23012
800150f8:	00e21021 	addu	v0,a3,v0
800150fc:	8c470000 	lw	a3,0(v0)
80015100:	00000000 	nop
80015104:	30e20200 	andi	v0,a3,0x200
80015108:	10400003 	beqz	v0,80015118 <page_check+0x838>
8001510c:	2402f000 	li	v0,-4096
80015110:	10000002 	b	8001511c <page_check+0x83c>
80015114:	00e22024 	and	a0,a3,v0
80015118:	2404ffff 	li	a0,-1
8001511c:	8fa80018 	lw	t0,24(sp)
80015120:	3c028001 	lui	v0,0x8001
80015124:	8c43673c 	lw	v1,26428(v0)
80015128:	00000000 	nop
8001512c:	01031823 	subu	v1,t0,v1
80015130:	00031883 	sra	v1,v1,0x2
80015134:	00031080 	sll	v0,v1,0x2
80015138:	00431021 	addu	v0,v0,v1
8001513c:	00021900 	sll	v1,v0,0x4
80015140:	00431021 	addu	v0,v0,v1
80015144:	00021a00 	sll	v1,v0,0x8
80015148:	00431021 	addu	v0,v0,v1
8001514c:	00021c00 	sll	v1,v0,0x10
80015150:	00431021 	addu	v0,v0,v1
80015154:	00021023 	negu	v0,v0
80015158:	00021300 	sll	v0,v0,0xc
8001515c:	10820008 	beq	a0,v0,80015180 <page_check+0x8a0>
80015160:	3c078001 	lui	a3,0x8001
80015164:	3c048001 	lui	a0,0x8001
80015168:	24845e18 	addiu	a0,a0,24088
8001516c:	2405025c 	li	a1,604
80015170:	3c068001 	lui	a2,0x8001
80015174:	24c65adc 	addiu	a2,a2,23260
80015178:	0c00496e 	jal	800125b8 <_panic>
8001517c:	24e760cc 	addiu	a3,a3,24780
80015180:	10c00019 	beqz	a2,800151e8 <page_check+0x908>
80015184:	2402ffff 	li	v0,-1
80015188:	2402f000 	li	v0,-4096
8001518c:	00a23824 	and	a3,a1,v0
80015190:	00071302 	srl	v0,a3,0xc
80015194:	3c038001 	lui	v1,0x8001
80015198:	8c636728 	lw	v1,26408(v1)
8001519c:	00000000 	nop
800151a0:	0043102b 	sltu	v0,v0,v1
800151a4:	14400007 	bnez	v0,800151c4 <page_check+0x8e4>
800151a8:	3c028000 	lui	v0,0x8000
800151ac:	3c048001 	lui	a0,0x8001
800151b0:	248459d0 	addiu	a0,a0,22992
800151b4:	2405003c 	li	a1,60
800151b8:	3c068001 	lui	a2,0x8001
800151bc:	0c00496e 	jal	800125b8 <_panic>
800151c0:	24c659e4 	addiu	a2,a2,23012
800151c4:	00e21021 	addu	v0,a3,v0
800151c8:	8c470004 	lw	a3,4(v0)
800151cc:	00000000 	nop
800151d0:	30e20200 	andi	v0,a3,0x200
800151d4:	10400003 	beqz	v0,800151e4 <page_check+0x904>
800151d8:	2402f000 	li	v0,-4096
800151dc:	10000002 	b	800151e8 <page_check+0x908>
800151e0:	00e21024 	and	v0,a3,v0
800151e4:	2402ffff 	li	v0,-1
800151e8:	10820009 	beq	a0,v0,80015210 <page_check+0x930>
800151ec:	24020002 	li	v0,2
800151f0:	3c048001 	lui	a0,0x8001
800151f4:	24845e18 	addiu	a0,a0,24088
800151f8:	2405025d 	li	a1,605
800151fc:	3c068001 	lui	a2,0x8001
80015200:	24c65adc 	addiu	a2,a2,23260
80015204:	3c078001 	lui	a3,0x8001
80015208:	0c00496e 	jal	800125b8 <_panic>
8001520c:	24e761e0 	addiu	a3,a3,25056
80015210:	95030008 	lhu	v1,8(t0)
80015214:	00000000 	nop
80015218:	10620008 	beq	v1,v0,8001523c <page_check+0x95c>
8001521c:	3c048001 	lui	a0,0x8001
80015220:	24845e18 	addiu	a0,a0,24088
80015224:	2405025f 	li	a1,607
80015228:	3c068001 	lui	a2,0x8001
8001522c:	24c65adc 	addiu	a2,a2,23260
80015230:	3c078001 	lui	a3,0x8001
80015234:	0c00496e 	jal	800125b8 <_panic>
80015238:	24e7620c 	addiu	a3,a3,25100
8001523c:	3c048001 	lui	a0,0x8001
80015240:	8fa2001c 	lw	v0,28(sp)
80015244:	00000000 	nop
80015248:	94450008 	lhu	a1,8(v0)
8001524c:	0c00495e 	jal	80012578 <printf>
80015250:	24846220 	addiu	a0,a0,25120
80015254:	8fa2001c 	lw	v0,28(sp)
80015258:	00000000 	nop
8001525c:	94420008 	lhu	v0,8(v0)
80015260:	00000000 	nop
80015264:	10400008 	beqz	v0,80015288 <page_check+0x9a8>
80015268:	24050261 	li	a1,609
8001526c:	3c048001 	lui	a0,0x8001
80015270:	24845e18 	addiu	a0,a0,24088
80015274:	3c068001 	lui	a2,0x8001
80015278:	24c65adc 	addiu	a2,a2,23260
8001527c:	3c078001 	lui	a3,0x8001
80015280:	0c00496e 	jal	800125b8 <_panic>
80015284:	24e76230 	addiu	a3,a3,25136
80015288:	3c048001 	lui	a0,0x8001
8001528c:	0c00495e 	jal	80012578 <printf>
80015290:	24846244 	addiu	a0,a0,25156
80015294:	0c004f51 	jal	80013d44 <page_alloc>
80015298:	27a40010 	addiu	a0,sp,16
8001529c:	14400006 	bnez	v0,800152b8 <page_check+0x9d8>
800152a0:	3c048001 	lui	a0,0x8001
800152a4:	8fa30010 	lw	v1,16(sp)
800152a8:	8fa2001c 	lw	v0,28(sp)
800152ac:	00000000 	nop
800152b0:	10620008 	beq	v1,v0,800152d4 <page_check+0x9f4>
800152b4:	3c108001 	lui	s0,0x8001
800152b8:	24845e18 	addiu	a0,a0,24088
800152bc:	24050265 	li	a1,613
800152c0:	3c068001 	lui	a2,0x8001
800152c4:	24c65adc 	addiu	a2,a2,23260
800152c8:	3c078001 	lui	a3,0x8001
800152cc:	0c00496e 	jal	800125b8 <_panic>
800152d0:	24e76258 	addiu	a3,a3,25176
800152d4:	8e04672c 	lw	a0,26412(s0)
800152d8:	0c00508e 	jal	80014238 <page_remove>
800152dc:	00002821 	move	a1,zero
800152e0:	8e04672c 	lw	a0,26412(s0)
800152e4:	00000000 	nop
800152e8:	8c870000 	lw	a3,0(a0)
800152ec:	00000000 	nop
800152f0:	30e20200 	andi	v0,a3,0x200
800152f4:	10400038 	beqz	v0,800153d8 <page_check+0xaf8>
800152f8:	2402f000 	li	v0,-4096
800152fc:	00e24024 	and	t0,a3,v0
80015300:	00081302 	srl	v0,t0,0xc
80015304:	3c038001 	lui	v1,0x8001
80015308:	8c636728 	lw	v1,26408(v1)
8001530c:	00000000 	nop
80015310:	0043102b 	sltu	v0,v0,v1
80015314:	14400008 	bnez	v0,80015338 <page_check+0xa58>
80015318:	3c028000 	lui	v0,0x8000
8001531c:	3c048001 	lui	a0,0x8001
80015320:	248459d0 	addiu	a0,a0,22992
80015324:	2405003c 	li	a1,60
80015328:	3c068001 	lui	a2,0x8001
8001532c:	24c659e4 	addiu	a2,a2,23012
80015330:	0c00496e 	jal	800125b8 <_panic>
80015334:	01003821 	move	a3,t0
80015338:	01021021 	addu	v0,t0,v0
8001533c:	8c430000 	lw	v1,0(v0)
80015340:	00000000 	nop
80015344:	30620200 	andi	v0,v1,0x200
80015348:	1040000d 	beqz	v0,80015380 <page_check+0xaa0>
8001534c:	2402f000 	li	v0,-4096
80015350:	00621024 	and	v0,v1,v0
80015354:	2403ffff 	li	v1,-1
80015358:	10430009 	beq	v0,v1,80015380 <page_check+0xaa0>
8001535c:	2402f000 	li	v0,-4096
80015360:	3c048001 	lui	a0,0x8001
80015364:	24845e18 	addiu	a0,a0,24088
80015368:	24050269 	li	a1,617
8001536c:	3c068001 	lui	a2,0x8001
80015370:	24c65adc 	addiu	a2,a2,23260
80015374:	3c078001 	lui	a3,0x8001
80015378:	0c00496e 	jal	800125b8 <_panic>
8001537c:	24e7627c 	addiu	a3,a3,25212
80015380:	00e23824 	and	a3,a3,v0
80015384:	00071302 	srl	v0,a3,0xc
80015388:	3c038001 	lui	v1,0x8001
8001538c:	8c636728 	lw	v1,26408(v1)
80015390:	00000000 	nop
80015394:	0043102b 	sltu	v0,v0,v1
80015398:	14400007 	bnez	v0,800153b8 <page_check+0xad8>
8001539c:	3c028000 	lui	v0,0x8000
800153a0:	3c048001 	lui	a0,0x8001
800153a4:	248459d0 	addiu	a0,a0,22992
800153a8:	2405003c 	li	a1,60
800153ac:	3c068001 	lui	a2,0x8001
800153b0:	0c00496e 	jal	800125b8 <_panic>
800153b4:	24c659e4 	addiu	a2,a2,23012
800153b8:	00e21021 	addu	v0,a3,v0
800153bc:	8c470004 	lw	a3,4(v0)
800153c0:	00000000 	nop
800153c4:	30e20200 	andi	v0,a3,0x200
800153c8:	10400003 	beqz	v0,800153d8 <page_check+0xaf8>
800153cc:	2402f000 	li	v0,-4096
800153d0:	10000002 	b	800153dc <page_check+0xafc>
800153d4:	00e23824 	and	a3,a3,v0
800153d8:	2407ffff 	li	a3,-1
800153dc:	8fa50018 	lw	a1,24(sp)
800153e0:	3c028001 	lui	v0,0x8001
800153e4:	8c43673c 	lw	v1,26428(v0)
800153e8:	00000000 	nop
800153ec:	00a31823 	subu	v1,a1,v1
800153f0:	00031883 	sra	v1,v1,0x2
800153f4:	00031080 	sll	v0,v1,0x2
800153f8:	00431021 	addu	v0,v0,v1
800153fc:	00021900 	sll	v1,v0,0x4
80015400:	00431021 	addu	v0,v0,v1
80015404:	00021a00 	sll	v1,v0,0x8
80015408:	00431021 	addu	v0,v0,v1
8001540c:	00021c00 	sll	v1,v0,0x10
80015410:	00431021 	addu	v0,v0,v1
80015414:	00021023 	negu	v0,v0
80015418:	00021300 	sll	v0,v0,0xc
8001541c:	10e20009 	beq	a3,v0,80015444 <page_check+0xb64>
80015420:	24020001 	li	v0,1
80015424:	3c048001 	lui	a0,0x8001
80015428:	24845e18 	addiu	a0,a0,24088
8001542c:	2405026a 	li	a1,618
80015430:	3c068001 	lui	a2,0x8001
80015434:	24c65adc 	addiu	a2,a2,23260
80015438:	3c078001 	lui	a3,0x8001
8001543c:	0c00496e 	jal	800125b8 <_panic>
80015440:	24e761e0 	addiu	a3,a3,25056
80015444:	94a30008 	lhu	v1,8(a1)
80015448:	00000000 	nop
8001544c:	10620008 	beq	v1,v0,80015470 <page_check+0xb90>
80015450:	2405026b 	li	a1,619
80015454:	3c048001 	lui	a0,0x8001
80015458:	24845e18 	addiu	a0,a0,24088
8001545c:	3c068001 	lui	a2,0x8001
80015460:	24c65adc 	addiu	a2,a2,23260
80015464:	3c078001 	lui	a3,0x8001
80015468:	0c00496e 	jal	800125b8 <_panic>
8001546c:	24e760f4 	addiu	a3,a3,24820
80015470:	8fa2001c 	lw	v0,28(sp)
80015474:	00000000 	nop
80015478:	94420008 	lhu	v0,8(v0)
8001547c:	00000000 	nop
80015480:	10400008 	beqz	v0,800154a4 <page_check+0xbc4>
80015484:	2405026c 	li	a1,620
80015488:	3c048001 	lui	a0,0x8001
8001548c:	24845e18 	addiu	a0,a0,24088
80015490:	3c068001 	lui	a2,0x8001
80015494:	24c65adc 	addiu	a2,a2,23260
80015498:	3c078001 	lui	a3,0x8001
8001549c:	0c00496e 	jal	800125b8 <_panic>
800154a0:	24e76230 	addiu	a3,a3,25136
800154a4:	0c00508e 	jal	80014238 <page_remove>
800154a8:	24051000 	li	a1,4096
800154ac:	3c028001 	lui	v0,0x8001
800154b0:	8c42672c 	lw	v0,26412(v0)
800154b4:	00000000 	nop
800154b8:	8c470000 	lw	a3,0(v0)
800154bc:	00000000 	nop
800154c0:	30e20200 	andi	v0,a3,0x200
800154c4:	10400041 	beqz	v0,800155cc <page_check+0xcec>
800154c8:	2402f000 	li	v0,-4096
800154cc:	00e24024 	and	t0,a3,v0
800154d0:	00081302 	srl	v0,t0,0xc
800154d4:	3c038001 	lui	v1,0x8001
800154d8:	8c636728 	lw	v1,26408(v1)
800154dc:	00000000 	nop
800154e0:	0043102b 	sltu	v0,v0,v1
800154e4:	14400008 	bnez	v0,80015508 <page_check+0xc28>
800154e8:	3c028000 	lui	v0,0x8000
800154ec:	3c048001 	lui	a0,0x8001
800154f0:	248459d0 	addiu	a0,a0,22992
800154f4:	2405003c 	li	a1,60
800154f8:	3c068001 	lui	a2,0x8001
800154fc:	24c659e4 	addiu	a2,a2,23012
80015500:	0c00496e 	jal	800125b8 <_panic>
80015504:	01003821 	move	a3,t0
80015508:	01021021 	addu	v0,t0,v0
8001550c:	8c430000 	lw	v1,0(v0)
80015510:	00000000 	nop
80015514:	30620200 	andi	v0,v1,0x200
80015518:	1040000d 	beqz	v0,80015550 <page_check+0xc70>
8001551c:	2402f000 	li	v0,-4096
80015520:	00621024 	and	v0,v1,v0
80015524:	2403ffff 	li	v1,-1
80015528:	10430009 	beq	v0,v1,80015550 <page_check+0xc70>
8001552c:	2402f000 	li	v0,-4096
80015530:	3c048001 	lui	a0,0x8001
80015534:	24845e18 	addiu	a0,a0,24088
80015538:	24050270 	li	a1,624
8001553c:	3c068001 	lui	a2,0x8001
80015540:	24c65adc 	addiu	a2,a2,23260
80015544:	3c078001 	lui	a3,0x8001
80015548:	0c00496e 	jal	800125b8 <_panic>
8001554c:	24e7627c 	addiu	a3,a3,25212
80015550:	00e23824 	and	a3,a3,v0
80015554:	00071302 	srl	v0,a3,0xc
80015558:	3c038001 	lui	v1,0x8001
8001555c:	8c636728 	lw	v1,26408(v1)
80015560:	00000000 	nop
80015564:	0043102b 	sltu	v0,v0,v1
80015568:	14400007 	bnez	v0,80015588 <page_check+0xca8>
8001556c:	3c028000 	lui	v0,0x8000
80015570:	3c048001 	lui	a0,0x8001
80015574:	248459d0 	addiu	a0,a0,22992
80015578:	2405003c 	li	a1,60
8001557c:	3c068001 	lui	a2,0x8001
80015580:	0c00496e 	jal	800125b8 <_panic>
80015584:	24c659e4 	addiu	a2,a2,23012
80015588:	00e21021 	addu	v0,a3,v0
8001558c:	8c470004 	lw	a3,4(v0)
80015590:	00000000 	nop
80015594:	30e20200 	andi	v0,a3,0x200
80015598:	1040000c 	beqz	v0,800155cc <page_check+0xcec>
8001559c:	2402f000 	li	v0,-4096
800155a0:	00e21024 	and	v0,a3,v0
800155a4:	2403ffff 	li	v1,-1
800155a8:	10430008 	beq	v0,v1,800155cc <page_check+0xcec>
800155ac:	3c048001 	lui	a0,0x8001
800155b0:	24845e18 	addiu	a0,a0,24088
800155b4:	24050271 	li	a1,625
800155b8:	3c068001 	lui	a2,0x8001
800155bc:	24c65adc 	addiu	a2,a2,23260
800155c0:	3c078001 	lui	a3,0x8001
800155c4:	0c00496e 	jal	800125b8 <_panic>
800155c8:	24e7629c 	addiu	a3,a3,25244
800155cc:	8fa20018 	lw	v0,24(sp)
800155d0:	00000000 	nop
800155d4:	94420008 	lhu	v0,8(v0)
800155d8:	00000000 	nop
800155dc:	10400008 	beqz	v0,80015600 <page_check+0xd20>
800155e0:	3c048001 	lui	a0,0x8001
800155e4:	24845e18 	addiu	a0,a0,24088
800155e8:	24050272 	li	a1,626
800155ec:	3c068001 	lui	a2,0x8001
800155f0:	24c65adc 	addiu	a2,a2,23260
800155f4:	3c078001 	lui	a3,0x8001
800155f8:	0c00496e 	jal	800125b8 <_panic>
800155fc:	24e762bc 	addiu	a3,a3,25276
80015600:	8fa2001c 	lw	v0,28(sp)
80015604:	00000000 	nop
80015608:	94420008 	lhu	v0,8(v0)
8001560c:	00000000 	nop
80015610:	10400007 	beqz	v0,80015630 <page_check+0xd50>
80015614:	24845e18 	addiu	a0,a0,24088
80015618:	24050273 	li	a1,627
8001561c:	3c068001 	lui	a2,0x8001
80015620:	24c65adc 	addiu	a2,a2,23260
80015624:	3c078001 	lui	a3,0x8001
80015628:	0c00496e 	jal	800125b8 <_panic>
8001562c:	24e76230 	addiu	a3,a3,25136
80015630:	0c004f51 	jal	80013d44 <page_alloc>
80015634:	27a40010 	addiu	a0,sp,16
80015638:	14400006 	bnez	v0,80015654 <page_check+0xd74>
8001563c:	00000000 	nop
80015640:	8fa30010 	lw	v1,16(sp)
80015644:	8fa20018 	lw	v0,24(sp)
80015648:	00000000 	nop
8001564c:	10620009 	beq	v1,v0,80015674 <page_check+0xd94>
80015650:	00000000 	nop
80015654:	3c048001 	lui	a0,0x8001
80015658:	24845e18 	addiu	a0,a0,24088
8001565c:	24050276 	li	a1,630
80015660:	3c068001 	lui	a2,0x8001
80015664:	24c65adc 	addiu	a2,a2,23260
80015668:	3c078001 	lui	a3,0x8001
8001566c:	0c00496e 	jal	800125b8 <_panic>
80015670:	24e762d0 	addiu	a3,a3,25296
80015674:	0c004f51 	jal	80013d44 <page_alloc>
80015678:	27a40010 	addiu	a0,sp,16
8001567c:	2403fffc 	li	v1,-4
80015680:	10430009 	beq	v0,v1,800156a8 <page_check+0xdc8>
80015684:	3c028001 	lui	v0,0x8001
80015688:	3c048001 	lui	a0,0x8001
8001568c:	24845e18 	addiu	a0,a0,24088
80015690:	24050279 	li	a1,633
80015694:	3c068001 	lui	a2,0x8001
80015698:	24c65adc 	addiu	a2,a2,23260
8001569c:	3c078001 	lui	a3,0x8001
800156a0:	0c00496e 	jal	800125b8 <_panic>
800156a4:	24e75f3c 	addiu	a3,a3,24380
800156a8:	8c45672c 	lw	a1,26412(v0)
800156ac:	00000000 	nop
800156b0:	8ca40000 	lw	a0,0(a1)
800156b4:	2402f000 	li	v0,-4096
800156b8:	00822024 	and	a0,a0,v0
800156bc:	3c028001 	lui	v0,0x8001
800156c0:	8c42673c 	lw	v0,26428(v0)
800156c4:	8fa30014 	lw	v1,20(sp)
800156c8:	00000000 	nop
800156cc:	00621823 	subu	v1,v1,v0
800156d0:	00031883 	sra	v1,v1,0x2
800156d4:	00031080 	sll	v0,v1,0x2
800156d8:	00431021 	addu	v0,v0,v1
800156dc:	00021900 	sll	v1,v0,0x4
800156e0:	00431021 	addu	v0,v0,v1
800156e4:	00021a00 	sll	v1,v0,0x8
800156e8:	00431021 	addu	v0,v0,v1
800156ec:	00021c00 	sll	v1,v0,0x10
800156f0:	00431021 	addu	v0,v0,v1
800156f4:	00021023 	negu	v0,v0
800156f8:	00021300 	sll	v0,v0,0xc
800156fc:	10820009 	beq	a0,v0,80015724 <page_check+0xe44>
80015700:	24020001 	li	v0,1
80015704:	3c048001 	lui	a0,0x8001
80015708:	24845e18 	addiu	a0,a0,24088
8001570c:	2405027c 	li	a1,636
80015710:	3c068001 	lui	a2,0x8001
80015714:	24c65adc 	addiu	a2,a2,23260
80015718:	3c078001 	lui	a3,0x8001
8001571c:	0c00496e 	jal	800125b8 <_panic>
80015720:	24e76070 	addiu	a3,a3,24688
80015724:	aca00000 	sw	zero,0(a1)
80015728:	8fa40014 	lw	a0,20(sp)
8001572c:	00000000 	nop
80015730:	94830008 	lhu	v1,8(a0)
80015734:	00000000 	nop
80015738:	10620009 	beq	v1,v0,80015760 <page_check+0xe80>
8001573c:	3c028001 	lui	v0,0x8001
80015740:	3c048001 	lui	a0,0x8001
80015744:	24845e18 	addiu	a0,a0,24088
80015748:	2405027e 	li	a1,638
8001574c:	3c068001 	lui	a2,0x8001
80015750:	24c65adc 	addiu	a2,a2,23260
80015754:	3c078001 	lui	a3,0x8001
80015758:	0c00496e 	jal	800125b8 <_panic>
8001575c:	24e762f4 	addiu	a3,a3,25332
80015760:	a4800008 	sh	zero,8(a0)
80015764:	ac516644 	sw	s1,26180(v0)
80015768:	8fa40014 	lw	a0,20(sp)
8001576c:	0c004f8d 	jal	80013e34 <page_free>
80015770:	00000000 	nop
80015774:	8fa40018 	lw	a0,24(sp)
80015778:	0c004f8d 	jal	80013e34 <page_free>
8001577c:	00000000 	nop
80015780:	8fa4001c 	lw	a0,28(sp)
80015784:	0c004f8d 	jal	80013e34 <page_free>
80015788:	00000000 	nop
8001578c:	3c048001 	lui	a0,0x8001
80015790:	0c00495e 	jal	80012578 <printf>
80015794:	24846308 	addiu	a0,a0,25352
80015798:	8fbf0028 	lw	ra,40(sp)
8001579c:	8fb10024 	lw	s1,36(sp)
800157a0:	8fb00020 	lw	s0,32(sp)
800157a4:	03e00008 	jr	ra
800157a8:	27bd0030 	addiu	sp,sp,48

800157ac <pageout>:
800157ac:	27bdffd8 	addiu	sp,sp,-40
800157b0:	afbf0020 	sw	ra,32(sp)
800157b4:	afb1001c 	sw	s1,28(sp)
800157b8:	afb00018 	sw	s0,24(sp)
800157bc:	00808021 	move	s0,a0
800157c0:	00a08821 	move	s1,a1
800157c4:	04a00007 	bltz	a1,800157e4 <pageout+0x38>
800157c8:	afa00010 	sw	zero,16(sp)
800157cc:	3c048001 	lui	a0,0x8001
800157d0:	24845e18 	addiu	a0,a0,24088
800157d4:	24050292 	li	a1,658
800157d8:	3c068001 	lui	a2,0x8001
800157dc:	0c00496e 	jal	800125b8 <_panic>
800157e0:	24c66324 	addiu	a2,a2,25380
800157e4:	3c0280bf 	lui	v0,0x80bf
800157e8:	3442ffff 	ori	v0,v0,0xffff
800157ec:	00821021 	addu	v0,a0,v0
800157f0:	3c03003f 	lui	v1,0x3f
800157f4:	3463fffe 	ori	v1,v1,0xfffe
800157f8:	0062102b 	sltu	v0,v1,v0
800157fc:	14400007 	bnez	v0,8001581c <pageout+0x70>
80015800:	3402ffff 	li	v0,0xffff
80015804:	3c048001 	lui	a0,0x8001
80015808:	24845e18 	addiu	a0,a0,24088
8001580c:	24050296 	li	a1,662
80015810:	3c068001 	lui	a2,0x8001
80015814:	0c00496e 	jal	800125b8 <_panic>
80015818:	24c66340 	addiu	a2,a2,25408
8001581c:	0044102a 	slt	v0,v0,a0
80015820:	14400006 	bnez	v0,8001583c <pageout+0x90>
80015824:	3c048001 	lui	a0,0x8001
80015828:	24845e18 	addiu	a0,a0,24088
8001582c:	2405029a 	li	a1,666
80015830:	3c068001 	lui	a2,0x8001
80015834:	0c00496e 	jal	800125b8 <_panic>
80015838:	24c66368 	addiu	a2,a2,25448
8001583c:	0c004f51 	jal	80013d44 <page_alloc>
80015840:	27a40010 	addiu	a0,sp,16
80015844:	8fa30010 	lw	v1,16(sp)
80015848:	00000000 	nop
8001584c:	94620008 	lhu	v0,8(v1)
80015850:	00000000 	nop
80015854:	24420001 	addiu	v0,v0,1
80015858:	a4620008 	sh	v0,8(v1)
8001585c:	02202021 	move	a0,s1
80015860:	8fa50010 	lw	a1,16(sp)
80015864:	2406f000 	li	a2,-4096
80015868:	02063024 	and	a2,s0,a2
8001586c:	0c004fe9 	jal	80013fa4 <page_insert>
80015870:	24070400 	li	a3,1024
80015874:	3c048001 	lui	a0,0x8001
80015878:	24846380 	addiu	a0,a0,25472
8001587c:	0c00495e 	jal	80012578 <printf>
80015880:	02002821 	move	a1,s0
80015884:	8fbf0020 	lw	ra,32(sp)
80015888:	8fb1001c 	lw	s1,28(sp)
8001588c:	8fb00018 	lw	s0,24(sp)
80015890:	03e00008 	jr	ra
80015894:	27bd0028 	addiu	sp,sp,40
	...

800158a0 <tlb_out>:
800158a0:	00000000 	nop
800158a4:	401b5000 	mfc0	k1,$10
800158a8:	40845000 	mtc0	a0,$10
800158ac:	00000000 	nop
800158b0:	42000008 	tlbp
	...
800158c4:	401a0000 	mfc0	k0,$0
800158c8:	00000000 	nop
800158cc:	07400007 	bltz	k0,800158ec <NOFOUND>
800158d0:	00000000 	nop
800158d4:	00000000 	nop
800158d8:	40805000 	mtc0	zero,$10
800158dc:	00000000 	nop
800158e0:	40801000 	mtc0	zero,$2
800158e4:	00000000 	nop
800158e8:	42000002 	tlbwi

800158ec <NOFOUND>:
800158ec:	409b5000 	mtc0	k1,$10
800158f0:	03e00008 	jr	ra
800158f4:	00000000 	nop
	...
